******************************************************************************
                  TI ARM Linker PC v5.2.6                      
******************************************************************************
>> Linked Tue Sep 11 17:03:46 2018

OUTPUT FILE NAME:   <project_zero_app_cc2650launchxl.out>
ENTRY POINT SYMBOL: "ResetISR"  address: 00009625


MEMORY CONFIGURATION

         name            origin    length      used     unused   attr    fill
----------------------  --------  ---------  --------  --------  ----  --------
  FLASH                 00000000   0000e000  0000dffa  00000006  R  X
  FLASH_LAST_PAGE       0001f000   00001000  00000c74  0000038c  R  X
  SRAM                  20000000   00004348  00002fca  0000137e  RW X


SEGMENT ALLOCATION MAP

run origin  load origin   length   init length attrs members
----------  ----------- ---------- ----------- ----- -------
00000000    00000000    0000e000   0000e000    r-x
  00000000    00000000    0000003c   0000003c    r-- .resetVecs
  0000003c    0000003c    000000c4   000000c4    r-x .text.1
  00000100    00000100    0000003c   0000003c    r-- .const:ti_sysbios_knl_Task_Object__PARAMS__C
  0000013c    0000013c    00000034   00000034    r-- .const:ti_sysbios_knl_Mailbox_Object__PARAMS__C
  00000170    00000170    00000030   00000030    r-- .const:ti_sysbios_family_arm_m3_Hwi_Object__PARAMS__C
  000001a0    000001a0    0000002c   0000002c    r-- .const:ti_sysbios_hal_Hwi_Object__PARAMS__C
  000001cc    000001cc    00000028   00000028    r-- .const:ti_sysbios_heaps_HeapMem_Module__FXNS__C
  000001f4    000001f4    00000028   00000028    r-- .const:ti_sysbios_knl_Swi_Object__PARAMS__C
  0000021c    0000021c    00000024   00000024    r-- .const:ti_sysbios_gates_GateHwi_Module__FXNS__C
  00000240    00000240    00000024   00000024    r-- .const:ti_sysbios_gates_GateMutex_Module__FXNS__C
  00000264    00000264    00000024   00000024    r-- .const:ti_sysbios_heaps_HeapMem_Object__PARAMS__C
  00000288    00000288    00000024   00000024    r-- .const:ti_sysbios_knl_Clock_Object__PARAMS__C
  000002ac    000002ac    00000024   00000024    r-- .const:ti_sysbios_knl_Semaphore_Object__PARAMS__C
  000002d0    000002d0    00000020   00000020    r-- .const:ti_sysbios_family_arm_m3_Hwi_Object__DESC__C
  000002f0    000002f0    00000020   00000020    r-- .const:ti_sysbios_gates_GateHwi_Object__DESC__C
  00000310    00000310    00000020   00000020    r-- .const:ti_sysbios_gates_GateMutex_Object__DESC__C
  00000330    00000330    00000020   00000020    r-- .const:ti_sysbios_hal_Hwi_Object__DESC__C
  00000350    00000350    00000020   00000020    r-- .const:ti_sysbios_heaps_HeapMem_Object__DESC__C
  00000370    00000370    00000020   00000020    r-- .const:ti_sysbios_knl_Clock_Object__DESC__C
  00000390    00000390    00000020   00000020    r-- .const:ti_sysbios_knl_Mailbox_Object__DESC__C
  000003b0    000003b0    00000020   00000020    r-- .const:ti_sysbios_knl_Queue_Object__DESC__C
  000003d0    000003d0    00000020   00000020    r-- .const:ti_sysbios_knl_Semaphore_Object__DESC__C
  000003f0    000003f0    00000020   00000020    r-- .const:ti_sysbios_knl_Swi_Object__DESC__C
  00000410    00000410    00000020   00000020    r-- .const:ti_sysbios_knl_Task_Object__DESC__C
  00000430    00000430    00000018   00000018    r-- .const:ti_sysbios_gates_GateHwi_Object__PARAMS__C
  00000448    00000448    00000018   00000018    r-- .const:ti_sysbios_gates_GateMutex_Object__PARAMS__C
  00000460    00000460    00000018   00000018    r-- .const:ti_sysbios_knl_Queue_Object__PARAMS__C
  00000478    00000478    00000008   00000008    r-- .const:ti_sysbios_knl_Idle_funcList__C
  00000480    00000480    00000004   00000004    r-x .text.2
  00000484    00000484    00000004   00000004    r-- .const:ti_sysbios_family_arm_cc26xx_Timer_startupNeeded__C
  00000488    00000488    00000004   00000004    r-- .const:ti_sysbios_family_arm_m3_Hwi_E_alreadyDefined__C
  0000048c    0000048c    00000004   00000004    r-- .const:ti_sysbios_family_arm_m3_Hwi_E_hwiLimitExceeded__C
  00000490    00000490    00000004   00000004    r-- .const:ti_sysbios_family_arm_m3_Hwi_NUM_INTERRUPTS__C
  00000494    00000494    00000004   00000004    r-- .const:ti_sysbios_family_arm_m3_Hwi_Object__count__C
  00000498    00000498    00000004   00000004    r-- .const:ti_sysbios_family_arm_m3_Hwi_Object__table__C
  0000049c    0000049c    00000004   00000004    r-- .const:ti_sysbios_family_arm_m3_Hwi_ccr__C
  000004a0    000004a0    00000004   00000004    r-- .const:ti_sysbios_family_arm_m3_Hwi_excHandlerFunc__C
  000004a4    000004a4    00000004   00000004    r-- .const:ti_sysbios_family_arm_m3_Hwi_nullIsrFunc__C
  000004a8    000004a8    00000004   00000004    r-- .const:ti_sysbios_family_arm_m3_Hwi_numSparseInterrupts__C
  000004ac    000004ac    00000004   00000004    r-- .const:ti_sysbios_family_arm_m3_Hwi_priGroup__C
  000004b0    000004b0    00000004   00000004    r-- .const:ti_sysbios_family_arm_m3_TaskSupport_stackAlignment__C
  000004b4    000004b4    00000004   00000004    r-- .const:ti_sysbios_heaps_HeapMem_E_memory__C
  000004b8    000004b8    00000004   00000004    r-- .const:ti_sysbios_heaps_HeapMem_Module__gateObj__C
  000004bc    000004bc    00000004   00000004    r-- .const:ti_sysbios_heaps_HeapMem_Object__count__C
  000004c0    000004c0    00000004   00000004    r-- .const:ti_sysbios_heaps_HeapMem_Object__table__C
  000004c4    000004c4    00000004   00000004    r-- .const:ti_sysbios_heaps_HeapMem_reqAlign__C
  000004c8    000004c8    00000004   00000004    r-- .const:ti_sysbios_knl_Clock_serviceMargin__C
  000004cc    000004cc    00000004   00000004    r-- .const:ti_sysbios_knl_Mailbox_Object__count__C
  000004d0    000004d0    00000004   00000004    r-- .const:ti_sysbios_knl_Mailbox_Object__table__C
  000004d4    000004d4    00000004   00000004    r-- .const:ti_sysbios_knl_Queue_Object__count__C
  000004d8    000004d8    00000004   00000004    r-- .const:ti_sysbios_knl_Queue_Object__table__C
  000004dc    000004dc    00000004   00000004    r-- .const:ti_sysbios_knl_Swi_Object__count__C
  000004e0    000004e0    00000004   00000004    r-- .const:ti_sysbios_knl_Swi_Object__table__C
  000004e4    000004e4    00000004   00000004    r-- .const:ti_sysbios_knl_Swi_numPriorities__C
  000004e8    000004e8    00000004   00000004    r-- .const:ti_sysbios_knl_Task_Object__count__C
  000004ec    000004ec    00000004   00000004    r-- .const:ti_sysbios_knl_Task_Object__table__C
  000004f0    000004f0    00000004   00000004    r-- .const:ti_sysbios_knl_Task_allBlockedFunc__C
  000004f4    000004f4    00000004   00000004    r-- .const:ti_sysbios_knl_Task_defaultStackHeap__C
  000004f8    000004f8    00000004   00000004    r-- .const:ti_sysbios_knl_Task_defaultStackSize__C
  000004fc    000004fc    00000004   00000004    r-- .const:ti_sysbios_knl_Task_numConstructedTasks__C
  00000500    00000500    00000002   00000002    r-x .text.3
  00000502    00000502    00000002   00000002    r-- .const:ti_sysbios_family_arm_cc26xx_Timer_Module__id__C
  00000504    00000504    00000002   00000002    r-- .const:ti_sysbios_family_arm_cc26xx_TimestampProvider_useClockTimer__C
  00000506    00000506    00000002   00000002    r-- .const:ti_sysbios_family_arm_m3_Hwi_Module__id__C
  00000508    00000508    00000002   00000002    r-- .const:ti_sysbios_gates_GateHwi_Module__id__C
  0000050a    0000050a    00000002   00000002    r-- .const:ti_sysbios_gates_GateMutex_Module__id__C
  0000050c    0000050c    00000002   00000002    r-- .const:ti_sysbios_heaps_HeapMem_Module__id__C
  0000050e    0000050e    00000002   00000002    r-- .const:ti_sysbios_knl_Task_initStackFlag__C
  00000510    00000510    00000001   00000001    r-- .const:ti_sysbios_knl_Clock_tickMode__C
  00000514    00000514    00000008   00000008    r-- .const:xdc_runtime_Startup_firstFxns__C
  0000051c    0000051c    00000008   00000008    r-- .const:xdc_runtime_Startup_lastFxns__C
  00000524    00000524    00000004   00000004    r-- .const:xdc_runtime_Assert_E_assertFailed__C
  00000528    00000528    00000004   00000004    r-- .const:xdc_runtime_Error_E_memory__C
  0000052c    0000052c    00000004   00000004    r-- .const:xdc_runtime_Error_policyFxn__C
  00000530    00000530    00000004   00000004    r-- .const:xdc_runtime_IGateProvider_Interface__BASE__C
  00000534    00000534    00000004   00000004    r-- .const:xdc_runtime_IHeap_Interface__BASE__C
  00000538    00000538    00000004   00000004    r-- .const:xdc_runtime_IModule_Interface__BASE__C
  0000053c    0000053c    00000004   00000004    r-- .const:xdc_runtime_Main_Module__diagsEnabled__C
  00000540    00000540    00000004   00000004    r-- .const:xdc_runtime_Main_Module__diagsIncluded__C
  00000544    00000544    00000004   00000004    r-- .const:xdc_runtime_Main_Module__diagsMask__C
  00000548    00000548    00000004   00000004    r-- .const:xdc_runtime_Memory_defaultHeapInstance__C
  0000054c    0000054c    00000004   00000004    r-- .const:xdc_runtime_Startup_execImpl__C
  00000550    00000550    00000004   00000004    r-- .const:xdc_runtime_Startup_maxPasses__C
  00000554    00000554    00000004   00000004    r-- .const:xdc_runtime_Startup_sfxnRts__C
  00000558    00000558    00000004   00000004    r-- .const:xdc_runtime_Startup_sfxnTab__C
  0000055c    0000055c    00000004   00000004    r-- .const:xdc_runtime_Startup_startModsFxn__C
  00000560    00000560    00000004   00000004    r-- .const:xdc_runtime_SysCallback_abortFxn__C
  00000564    00000564    00000004   00000004    r-- .const:xdc_runtime_SysCallback_exitFxn__C
  00000568    00000568    00000004   00000004    r-- .const:xdc_runtime_System_abortFxn__C
  0000056c    0000056c    00000004   00000004    r-- .const:xdc_runtime_System_exitFxn__C
  00000570    00000570    00000004   00000004    r-- .const:xdc_runtime_System_maxAtexitHandlers__C
  00000574    00000574    00000004   00000004    r-- .const:xdc_runtime_Text_charTab__C
  00000578    00000578    00000004   00000004    r-- .const:xdc_runtime_Text_nameEmpty__C
  0000057c    0000057c    00000004   00000004    r-- .const:xdc_runtime_Text_nameStatic__C
  00000580    00000580    00000004   00000004    r-- .const:xdc_runtime_Text_nameUnknown__C
  00000584    00000584    00000002   00000002    r-- .const:xdc_runtime_Main_Module__id__C
  00000586    00000586    00000002   00000002    r-- .const:xdc_runtime_Memory_Module__id__C
  00000588    00000588    00000002   00000002    r-- .const:xdc_runtime_Text_charCnt__C
  0000058a    0000058a    00000002   00000002    r-- .const:xdc_runtime_Text_isLoaded__C
  0000058c    0000058c    00000001   00000001    r-- .const:xdc_runtime_Error_policy__C
  00000590    00000590    00000004   00000004    r-- .const:ti_sysbios_rom_ROM_AONRTCChannelEnable
  00000594    00000594    00000004   00000004    r-- .const:ti_sysbios_rom_ROM_AONRTCCompareValueSet
  00000598    00000598    00000004   00000004    r-- .const:ti_sysbios_rom_ROM_AONRTCCurrentCompareValueGet
  0000059c    0000059c    00000004   00000004    r-- .const:ti_sysbios_rom_ROM_AONRTCEventClear
  000005a0    000005a0    00000004   00000004    r-- .const:ti_sysbios_rom_ROM_ti_sysbios_family_arm_cc26xx_Timer_getCount64__E
  000005a4    000005a4    00000004   00000004    r-- .const:ti_sysbios_rom_ROM_ti_sysbios_family_arm_cc26xx_Timer_getCurrentTick__E
  000005a8    000005a8    00000004   00000004    r-- .const:ti_sysbios_rom_ROM_ti_sysbios_family_arm_cc26xx_Timer_getMaxTicks__E
  000005ac    000005ac    00000004   00000004    r-- .const:ti_sysbios_rom_ROM_ti_sysbios_family_arm_cc26xx_Timer_initDevice__I
  000005b0    000005b0    00000004   00000004    r-- .const:ti_sysbios_rom_ROM_ti_sysbios_family_arm_cc26xx_Timer_setNextTick__E
  000005b4    000005b4    00000004   00000004    r-- .const:ti_sysbios_rom_ROM_ti_sysbios_family_arm_cc26xx_Timer_setThreshold__I
  000005b8    000005b8    00000004   00000004    r-- .const:ti_sysbios_rom_ROM_ti_sysbios_family_arm_cc26xx_Timer_start__E
  000005bc    000005bc    00000004   00000004    r-- .const:ti_sysbios_rom_ROM_ti_sysbios_family_arm_cc26xx_TimestampProvider_get32__E
  000005c0    000005c0    00000004   00000004    r-- .const:ti_sysbios_rom_ROM_xdc_runtime_Startup_getState__I
  000005c4    000005c4    00000004   00000004    r-- .const:ti_sysbios_rom_ROM_xdc_runtime_System_SupportProxy_abort__E
  000005c8    000005c8    00000004   00000004    r-- .const:ti_sysbios_rom_ROM_xdc_runtime_System_SupportProxy_exit__E
  000005cc    000005cc    00000004   00000004    r-- .const:ti_sysbios_gates_GateMutex_Instance_State_sem__O
  000005d0    000005d0    00000004   00000004    r-- .const:ti_sysbios_knl_Clock_Module_State_clockQ__O
  000005d4    000005d4    00000004   00000004    r-- .const:ti_sysbios_knl_Mailbox_Instance_State_dataQue__O
  000005d8    000005d8    00000004   00000004    r-- .const:ti_sysbios_knl_Mailbox_Instance_State_dataSem__O
  000005dc    000005dc    00000004   00000004    r-- .const:ti_sysbios_knl_Mailbox_Instance_State_freeQue__O
  000005e0    000005e0    00000004   00000004    r-- .const:ti_sysbios_knl_Mailbox_Instance_State_freeSem__O
  000005e4    000005e4    00000004   00000004    r-- .const:ti_sysbios_knl_Semaphore_Instance_State_pendQ__O
  000005e8    000005e8    00000004   00000004    r-- .const:ti_sysbios_knl_Task_Module_State_inactiveQ__O
  000005ec    000005ec    0000bdcc   0000bdcc    r-x .text.4
  0000c3b8    0000c3b8    00001c48   00001c48    r-- .const.1
0001f000    0001f000    00000404   00000404    r--
  0001f000    0001f000    00000404   00000404    r-- .const.2
0001f404    0001f404    00000008   00000008    rw-
  0001f404    0001f404    00000008   00000008    rw- .args
0001f410    0001f410    00000810   00000810    r--
  0001f410    0001f410    00000810   00000810    r-- .cinit
0001ffa8    0001ffa8    00000058   00000058    r--
  0001ffa8    0001ffa8    00000058   00000058    r-- .ccfg
20000100    20000100    00000104   00000000    rw-
  20000100    20000100    00000044   00000000    rw- .data:ti_sysbios_knl_Task_Module__state__V
  20000144    20000144    00000034   00000000    rw- .data:ti_sysbios_family_arm_m3_Hwi_Module__state__V
  20000178    20000178    0000002c   00000000    rw- .data:ti_sysbios_knl_Clock_Module__state__V
  200001a4    200001a4    00000024   00000000    rw- .data:ti_sysbios_BIOS_Module__state__V
  200001c8    200001c8    0000001c   00000000    rw- .data:ti_sysbios_knl_Swi_Module__state__V
  200001e4    200001e4    00000008   00000000    rw- .data:ti_sysbios_family_arm_cc26xx_Timer_Module__state__V
  200001ec    200001ec    00000004   00000000    rw- .data:ti_sysbios_family_arm_cc26xx_TimestampProvider_Module__state__V
  200001f0    200001f0    00000008   00000000    rw- .data:xdc_runtime_Startup_Module__state__V
  200001f8    200001f8    00000008   00000000    rw- .data:xdc_runtime_System_Module__state__V
  20000200    20000200    00000004   00000000    rw- .data:xdc_runtime_Memory_Module__state__V
20000430    20000430    00000010   00000000    rw-
  20000430    20000430    00000010   00000000    rw- .TI.bound:dmaSpi0RxControlTableEntry
20000440    20000440    00000010   00000000    rw-
  20000440    20000440    00000010   00000000    rw- .TI.bound:dmaSpi0TxControlTableEntry
20000500    20000500    00000010   00000000    rw-
  20000500    20000500    00000010   00000000    rw- .TI.bound:dmaSpi1RxControlTableEntry
20000510    20000510    000029ce   00000000    rw-
  20000510    20000510    00000010   00000000    rw- .TI.bound:dmaSpi1TxControlTableEntry
  20000520    20000520    000008f4   00000000    rw- .data
  20000e18    20000e18    000020c6   00000000    rw- .bss
20003f48    20003f48    00000400   00000000    rw-
  20003f48    20003f48    00000400   00000000    rw- .stack


SECTION ALLOCATION MAP

 output                                  attributes/
section   page    origin      length       input sections
--------  ----  ----------  ----------   ----------------
.resetVecs 
*          0    00000000    0000003c     
                  00000000    0000003c     app_ble_uartlog_pem3.oem3 (.resetVecs)

.text.1    0    0000003c    000000c4     
                  0000003c    000000b8     led_service.obj (.text:LedService_AddService)
                  000000f4    0000000c     rf_singleMode_cc26xxware.aem3 : RFCC26XX_singleMode.oem3 (.text:FsmNextState)

.const:ti_sysbios_knl_Task_Object__PARAMS__C 
*          0    00000100    0000003c     
                  00000100    0000003c     app_ble_uartlog_pem3.oem3 (.const:ti_sysbios_knl_Task_Object__PARAMS__C)

.const:ti_sysbios_knl_Mailbox_Object__PARAMS__C 
*          0    0000013c    00000034     
                  0000013c    00000034     app_ble_uartlog_pem3.oem3 (.const:ti_sysbios_knl_Mailbox_Object__PARAMS__C)

.const:ti_sysbios_family_arm_m3_Hwi_Object__PARAMS__C 
*          0    00000170    00000030     
                  00000170    00000030     app_ble_uartlog_pem3.oem3 (.const:ti_sysbios_family_arm_m3_Hwi_Object__PARAMS__C)

.const:ti_sysbios_hal_Hwi_Object__PARAMS__C 
*          0    000001a0    0000002c     
                  000001a0    0000002c     app_ble_uartlog_pem3.oem3 (.const:ti_sysbios_hal_Hwi_Object__PARAMS__C)

.const:ti_sysbios_heaps_HeapMem_Module__FXNS__C 
*          0    000001cc    00000028     
                  000001cc    00000028     app_ble_uartlog_pem3.oem3 (.const:ti_sysbios_heaps_HeapMem_Module__FXNS__C)

.const:ti_sysbios_knl_Swi_Object__PARAMS__C 
*          0    000001f4    00000028     
                  000001f4    00000028     app_ble_uartlog_pem3.oem3 (.const:ti_sysbios_knl_Swi_Object__PARAMS__C)

.const:ti_sysbios_gates_GateHwi_Module__FXNS__C 
*          0    0000021c    00000024     
                  0000021c    00000024     app_ble_uartlog_pem3.oem3 (.const:ti_sysbios_gates_GateHwi_Module__FXNS__C)

.const:ti_sysbios_gates_GateMutex_Module__FXNS__C 
*          0    00000240    00000024     
                  00000240    00000024     app_ble_uartlog_pem3.oem3 (.const:ti_sysbios_gates_GateMutex_Module__FXNS__C)

.const:ti_sysbios_heaps_HeapMem_Object__PARAMS__C 
*          0    00000264    00000024     
                  00000264    00000024     app_ble_uartlog_pem3.oem3 (.const:ti_sysbios_heaps_HeapMem_Object__PARAMS__C)

.const:ti_sysbios_knl_Clock_Object__PARAMS__C 
*          0    00000288    00000024     
                  00000288    00000024     app_ble_uartlog_pem3.oem3 (.const:ti_sysbios_knl_Clock_Object__PARAMS__C)

.const:ti_sysbios_knl_Semaphore_Object__PARAMS__C 
*          0    000002ac    00000024     
                  000002ac    00000024     app_ble_uartlog_pem3.oem3 (.const:ti_sysbios_knl_Semaphore_Object__PARAMS__C)

.const:ti_sysbios_family_arm_m3_Hwi_Object__DESC__C 
*          0    000002d0    00000020     
                  000002d0    00000020     app_ble_uartlog_pem3.oem3 (.const:ti_sysbios_family_arm_m3_Hwi_Object__DESC__C)

.const:ti_sysbios_gates_GateHwi_Object__DESC__C 
*          0    000002f0    00000020     
                  000002f0    00000020     app_ble_uartlog_pem3.oem3 (.const:ti_sysbios_gates_GateHwi_Object__DESC__C)

.const:ti_sysbios_gates_GateMutex_Object__DESC__C 
*          0    00000310    00000020     
                  00000310    00000020     app_ble_uartlog_pem3.oem3 (.const:ti_sysbios_gates_GateMutex_Object__DESC__C)

.const:ti_sysbios_hal_Hwi_Object__DESC__C 
*          0    00000330    00000020     
                  00000330    00000020     app_ble_uartlog_pem3.oem3 (.const:ti_sysbios_hal_Hwi_Object__DESC__C)

.const:ti_sysbios_heaps_HeapMem_Object__DESC__C 
*          0    00000350    00000020     
                  00000350    00000020     app_ble_uartlog_pem3.oem3 (.const:ti_sysbios_heaps_HeapMem_Object__DESC__C)

.const:ti_sysbios_knl_Clock_Object__DESC__C 
*          0    00000370    00000020     
                  00000370    00000020     app_ble_uartlog_pem3.oem3 (.const:ti_sysbios_knl_Clock_Object__DESC__C)

.const:ti_sysbios_knl_Mailbox_Object__DESC__C 
*          0    00000390    00000020     
                  00000390    00000020     app_ble_uartlog_pem3.oem3 (.const:ti_sysbios_knl_Mailbox_Object__DESC__C)

.const:ti_sysbios_knl_Queue_Object__DESC__C 
*          0    000003b0    00000020     
                  000003b0    00000020     app_ble_uartlog_pem3.oem3 (.const:ti_sysbios_knl_Queue_Object__DESC__C)

.const:ti_sysbios_knl_Semaphore_Object__DESC__C 
*          0    000003d0    00000020     
                  000003d0    00000020     app_ble_uartlog_pem3.oem3 (.const:ti_sysbios_knl_Semaphore_Object__DESC__C)

.const:ti_sysbios_knl_Swi_Object__DESC__C 
*          0    000003f0    00000020     
                  000003f0    00000020     app_ble_uartlog_pem3.oem3 (.const:ti_sysbios_knl_Swi_Object__DESC__C)

.const:ti_sysbios_knl_Task_Object__DESC__C 
*          0    00000410    00000020     
                  00000410    00000020     app_ble_uartlog_pem3.oem3 (.const:ti_sysbios_knl_Task_Object__DESC__C)

.const:ti_sysbios_gates_GateHwi_Object__PARAMS__C 
*          0    00000430    00000018     
                  00000430    00000018     app_ble_uartlog_pem3.oem3 (.const:ti_sysbios_gates_GateHwi_Object__PARAMS__C)

.const:ti_sysbios_gates_GateMutex_Object__PARAMS__C 
*          0    00000448    00000018     
                  00000448    00000018     app_ble_uartlog_pem3.oem3 (.const:ti_sysbios_gates_GateMutex_Object__PARAMS__C)

.const:ti_sysbios_knl_Queue_Object__PARAMS__C 
*          0    00000460    00000018     
                  00000460    00000018     app_ble_uartlog_pem3.oem3 (.const:ti_sysbios_knl_Queue_Object__PARAMS__C)

.const:ti_sysbios_knl_Idle_funcList__C 
*          0    00000478    00000008     
                  00000478    00000008     app_ble_uartlog_pem3.oem3 (.const:ti_sysbios_knl_Idle_funcList__C)

.text.2    0    00000480    00000004     
                  00000480    00000004     drivers_cc26xxware.aem3 : List.oem3 (.text:List_head)

.const:ti_sysbios_family_arm_cc26xx_Timer_startupNeeded__C 
*          0    00000484    00000004     
                  00000484    00000004     app_ble_uartlog_pem3.oem3 (.const:ti_sysbios_family_arm_cc26xx_Timer_startupNeeded__C)

.const:ti_sysbios_family_arm_m3_Hwi_E_alreadyDefined__C 
*          0    00000488    00000004     
                  00000488    00000004     app_ble_uartlog_pem3.oem3 (.const:ti_sysbios_family_arm_m3_Hwi_E_alreadyDefined__C)

.const:ti_sysbios_family_arm_m3_Hwi_E_hwiLimitExceeded__C 
*          0    0000048c    00000004     
                  0000048c    00000004     app_ble_uartlog_pem3.oem3 (.const:ti_sysbios_family_arm_m3_Hwi_E_hwiLimitExceeded__C)

.const:ti_sysbios_family_arm_m3_Hwi_NUM_INTERRUPTS__C 
*          0    00000490    00000004     
                  00000490    00000004     app_ble_uartlog_pem3.oem3 (.const:ti_sysbios_family_arm_m3_Hwi_NUM_INTERRUPTS__C)

.const:ti_sysbios_family_arm_m3_Hwi_Object__count__C 
*          0    00000494    00000004     
                  00000494    00000004     app_ble_uartlog_pem3.oem3 (.const:ti_sysbios_family_arm_m3_Hwi_Object__count__C)

.const:ti_sysbios_family_arm_m3_Hwi_Object__table__C 
*          0    00000498    00000004     
                  00000498    00000004     app_ble_uartlog_pem3.oem3 (.const:ti_sysbios_family_arm_m3_Hwi_Object__table__C)

.const:ti_sysbios_family_arm_m3_Hwi_ccr__C 
*          0    0000049c    00000004     
                  0000049c    00000004     app_ble_uartlog_pem3.oem3 (.const:ti_sysbios_family_arm_m3_Hwi_ccr__C)

.const:ti_sysbios_family_arm_m3_Hwi_excHandlerFunc__C 
*          0    000004a0    00000004     
                  000004a0    00000004     app_ble_uartlog_pem3.oem3 (.const:ti_sysbios_family_arm_m3_Hwi_excHandlerFunc__C)

.const:ti_sysbios_family_arm_m3_Hwi_nullIsrFunc__C 
*          0    000004a4    00000004     
                  000004a4    00000004     app_ble_uartlog_pem3.oem3 (.const:ti_sysbios_family_arm_m3_Hwi_nullIsrFunc__C)

.const:ti_sysbios_family_arm_m3_Hwi_numSparseInterrupts__C 
*          0    000004a8    00000004     
                  000004a8    00000004     app_ble_uartlog_pem3.oem3 (.const:ti_sysbios_family_arm_m3_Hwi_numSparseInterrupts__C)

.const:ti_sysbios_family_arm_m3_Hwi_priGroup__C 
*          0    000004ac    00000004     
                  000004ac    00000004     app_ble_uartlog_pem3.oem3 (.const:ti_sysbios_family_arm_m3_Hwi_priGroup__C)

.const:ti_sysbios_family_arm_m3_TaskSupport_stackAlignment__C 
*          0    000004b0    00000004     
                  000004b0    00000004     app_ble_uartlog_pem3.oem3 (.const:ti_sysbios_family_arm_m3_TaskSupport_stackAlignment__C)

.const:ti_sysbios_heaps_HeapMem_E_memory__C 
*          0    000004b4    00000004     
                  000004b4    00000004     app_ble_uartlog_pem3.oem3 (.const:ti_sysbios_heaps_HeapMem_E_memory__C)

.const:ti_sysbios_heaps_HeapMem_Module__gateObj__C 
*          0    000004b8    00000004     
                  000004b8    00000004     app_ble_uartlog_pem3.oem3 (.const:ti_sysbios_heaps_HeapMem_Module__gateObj__C)

.const:ti_sysbios_heaps_HeapMem_Object__count__C 
*          0    000004bc    00000004     
                  000004bc    00000004     app_ble_uartlog_pem3.oem3 (.const:ti_sysbios_heaps_HeapMem_Object__count__C)

.const:ti_sysbios_heaps_HeapMem_Object__table__C 
*          0    000004c0    00000004     
                  000004c0    00000004     app_ble_uartlog_pem3.oem3 (.const:ti_sysbios_heaps_HeapMem_Object__table__C)

.const:ti_sysbios_heaps_HeapMem_reqAlign__C 
*          0    000004c4    00000004     
                  000004c4    00000004     app_ble_uartlog_pem3.oem3 (.const:ti_sysbios_heaps_HeapMem_reqAlign__C)

.const:ti_sysbios_knl_Clock_serviceMargin__C 
*          0    000004c8    00000004     
                  000004c8    00000004     app_ble_uartlog_pem3.oem3 (.const:ti_sysbios_knl_Clock_serviceMargin__C)

.const:ti_sysbios_knl_Mailbox_Object__count__C 
*          0    000004cc    00000004     
                  000004cc    00000004     app_ble_uartlog_pem3.oem3 (.const:ti_sysbios_knl_Mailbox_Object__count__C)

.const:ti_sysbios_knl_Mailbox_Object__table__C 
*          0    000004d0    00000004     
                  000004d0    00000004     app_ble_uartlog_pem3.oem3 (.const:ti_sysbios_knl_Mailbox_Object__table__C)

.const:ti_sysbios_knl_Queue_Object__count__C 
*          0    000004d4    00000004     
                  000004d4    00000004     app_ble_uartlog_pem3.oem3 (.const:ti_sysbios_knl_Queue_Object__count__C)

.const:ti_sysbios_knl_Queue_Object__table__C 
*          0    000004d8    00000004     
                  000004d8    00000004     app_ble_uartlog_pem3.oem3 (.const:ti_sysbios_knl_Queue_Object__table__C)

.const:ti_sysbios_knl_Swi_Object__count__C 
*          0    000004dc    00000004     
                  000004dc    00000004     app_ble_uartlog_pem3.oem3 (.const:ti_sysbios_knl_Swi_Object__count__C)

.const:ti_sysbios_knl_Swi_Object__table__C 
*          0    000004e0    00000004     
                  000004e0    00000004     app_ble_uartlog_pem3.oem3 (.const:ti_sysbios_knl_Swi_Object__table__C)

.const:ti_sysbios_knl_Swi_numPriorities__C 
*          0    000004e4    00000004     
                  000004e4    00000004     app_ble_uartlog_pem3.oem3 (.const:ti_sysbios_knl_Swi_numPriorities__C)

.const:ti_sysbios_knl_Task_Object__count__C 
*          0    000004e8    00000004     
                  000004e8    00000004     app_ble_uartlog_pem3.oem3 (.const:ti_sysbios_knl_Task_Object__count__C)

.const:ti_sysbios_knl_Task_Object__table__C 
*          0    000004ec    00000004     
                  000004ec    00000004     app_ble_uartlog_pem3.oem3 (.const:ti_sysbios_knl_Task_Object__table__C)

.const:ti_sysbios_knl_Task_allBlockedFunc__C 
*          0    000004f0    00000004     
                  000004f0    00000004     app_ble_uartlog_pem3.oem3 (.const:ti_sysbios_knl_Task_allBlockedFunc__C)

.const:ti_sysbios_knl_Task_defaultStackHeap__C 
*          0    000004f4    00000004     
                  000004f4    00000004     app_ble_uartlog_pem3.oem3 (.const:ti_sysbios_knl_Task_defaultStackHeap__C)

.const:ti_sysbios_knl_Task_defaultStackSize__C 
*          0    000004f8    00000004     
                  000004f8    00000004     app_ble_uartlog_pem3.oem3 (.const:ti_sysbios_knl_Task_defaultStackSize__C)

.const:ti_sysbios_knl_Task_numConstructedTasks__C 
*          0    000004fc    00000004     
                  000004fc    00000004     app_ble_uartlog_pem3.oem3 (.const:ti_sysbios_knl_Task_numConstructedTasks__C)

.text.3    0    00000500    00000002     
                  00000500    00000002     ble_user_config.obj (.text:DefaultAssertCback)

.const:ti_sysbios_family_arm_cc26xx_Timer_Module__id__C 
*          0    00000502    00000002     
                  00000502    00000002     app_ble_uartlog_pem3.oem3 (.const:ti_sysbios_family_arm_cc26xx_Timer_Module__id__C)

.const:ti_sysbios_family_arm_cc26xx_TimestampProvider_useClockTimer__C 
*          0    00000504    00000002     
                  00000504    00000002     app_ble_uartlog_pem3.oem3 (.const:ti_sysbios_family_arm_cc26xx_TimestampProvider_useClockTimer__C)

.const:ti_sysbios_family_arm_m3_Hwi_Module__id__C 
*          0    00000506    00000002     
                  00000506    00000002     app_ble_uartlog_pem3.oem3 (.const:ti_sysbios_family_arm_m3_Hwi_Module__id__C)

.const:ti_sysbios_gates_GateHwi_Module__id__C 
*          0    00000508    00000002     
                  00000508    00000002     app_ble_uartlog_pem3.oem3 (.const:ti_sysbios_gates_GateHwi_Module__id__C)

.const:ti_sysbios_gates_GateMutex_Module__id__C 
*          0    0000050a    00000002     
                  0000050a    00000002     app_ble_uartlog_pem3.oem3 (.const:ti_sysbios_gates_GateMutex_Module__id__C)

.const:ti_sysbios_heaps_HeapMem_Module__id__C 
*          0    0000050c    00000002     
                  0000050c    00000002     app_ble_uartlog_pem3.oem3 (.const:ti_sysbios_heaps_HeapMem_Module__id__C)

.const:ti_sysbios_knl_Task_initStackFlag__C 
*          0    0000050e    00000002     
                  0000050e    00000002     app_ble_uartlog_pem3.oem3 (.const:ti_sysbios_knl_Task_initStackFlag__C)

.const:ti_sysbios_knl_Clock_tickMode__C 
*          0    00000510    00000001     
                  00000510    00000001     app_ble_uartlog_pem3.oem3 (.const:ti_sysbios_knl_Clock_tickMode__C)

.const:xdc_runtime_Startup_firstFxns__C 
*          0    00000514    00000008     
                  00000514    00000008     app_ble_uartlog_pem3.oem3 (.const:xdc_runtime_Startup_firstFxns__C)

.const:xdc_runtime_Startup_lastFxns__C 
*          0    0000051c    00000008     
                  0000051c    00000008     app_ble_uartlog_pem3.oem3 (.const:xdc_runtime_Startup_lastFxns__C)

.const:xdc_runtime_Assert_E_assertFailed__C 
*          0    00000524    00000004     
                  00000524    00000004     app_ble_uartlog_pem3.oem3 (.const:xdc_runtime_Assert_E_assertFailed__C)

.const:xdc_runtime_Error_E_memory__C 
*          0    00000528    00000004     
                  00000528    00000004     app_ble_uartlog_pem3.oem3 (.const:xdc_runtime_Error_E_memory__C)

.const:xdc_runtime_Error_policyFxn__C 
*          0    0000052c    00000004     
                  0000052c    00000004     app_ble_uartlog_pem3.oem3 (.const:xdc_runtime_Error_policyFxn__C)

.const:xdc_runtime_IGateProvider_Interface__BASE__C 
*          0    00000530    00000004     
                  00000530    00000004     app_ble_uartlog_pem3.oem3 (.const:xdc_runtime_IGateProvider_Interface__BASE__C)

.const:xdc_runtime_IHeap_Interface__BASE__C 
*          0    00000534    00000004     
                  00000534    00000004     app_ble_uartlog_pem3.oem3 (.const:xdc_runtime_IHeap_Interface__BASE__C)

.const:xdc_runtime_IModule_Interface__BASE__C 
*          0    00000538    00000004     
                  00000538    00000004     app_ble_uartlog_pem3.oem3 (.const:xdc_runtime_IModule_Interface__BASE__C)

.const:xdc_runtime_Main_Module__diagsEnabled__C 
*          0    0000053c    00000004     
                  0000053c    00000004     app_ble_uartlog_pem3.oem3 (.const:xdc_runtime_Main_Module__diagsEnabled__C)

.const:xdc_runtime_Main_Module__diagsIncluded__C 
*          0    00000540    00000004     
                  00000540    00000004     app_ble_uartlog_pem3.oem3 (.const:xdc_runtime_Main_Module__diagsIncluded__C)

.const:xdc_runtime_Main_Module__diagsMask__C 
*          0    00000544    00000004     
                  00000544    00000004     app_ble_uartlog_pem3.oem3 (.const:xdc_runtime_Main_Module__diagsMask__C)

.const:xdc_runtime_Memory_defaultHeapInstance__C 
*          0    00000548    00000004     
                  00000548    00000004     app_ble_uartlog_pem3.oem3 (.const:xdc_runtime_Memory_defaultHeapInstance__C)

.const:xdc_runtime_Startup_execImpl__C 
*          0    0000054c    00000004     
                  0000054c    00000004     app_ble_uartlog_pem3.oem3 (.const:xdc_runtime_Startup_execImpl__C)

.const:xdc_runtime_Startup_maxPasses__C 
*          0    00000550    00000004     
                  00000550    00000004     app_ble_uartlog_pem3.oem3 (.const:xdc_runtime_Startup_maxPasses__C)

.const:xdc_runtime_Startup_sfxnRts__C 
*          0    00000554    00000004     
                  00000554    00000004     app_ble_uartlog_pem3.oem3 (.const:xdc_runtime_Startup_sfxnRts__C)

.const:xdc_runtime_Startup_sfxnTab__C 
*          0    00000558    00000004     
                  00000558    00000004     app_ble_uartlog_pem3.oem3 (.const:xdc_runtime_Startup_sfxnTab__C)

.const:xdc_runtime_Startup_startModsFxn__C 
*          0    0000055c    00000004     
                  0000055c    00000004     app_ble_uartlog_pem3.oem3 (.const:xdc_runtime_Startup_startModsFxn__C)

.const:xdc_runtime_SysCallback_abortFxn__C 
*          0    00000560    00000004     
                  00000560    00000004     app_ble_uartlog_pem3.oem3 (.const:xdc_runtime_SysCallback_abortFxn__C)

.const:xdc_runtime_SysCallback_exitFxn__C 
*          0    00000564    00000004     
                  00000564    00000004     app_ble_uartlog_pem3.oem3 (.const:xdc_runtime_SysCallback_exitFxn__C)

.const:xdc_runtime_System_abortFxn__C 
*          0    00000568    00000004     
                  00000568    00000004     app_ble_uartlog_pem3.oem3 (.const:xdc_runtime_System_abortFxn__C)

.const:xdc_runtime_System_exitFxn__C 
*          0    0000056c    00000004     
                  0000056c    00000004     app_ble_uartlog_pem3.oem3 (.const:xdc_runtime_System_exitFxn__C)

.const:xdc_runtime_System_maxAtexitHandlers__C 
*          0    00000570    00000004     
                  00000570    00000004     app_ble_uartlog_pem3.oem3 (.const:xdc_runtime_System_maxAtexitHandlers__C)

.const:xdc_runtime_Text_charTab__C 
*          0    00000574    00000004     
                  00000574    00000004     app_ble_uartlog_pem3.oem3 (.const:xdc_runtime_Text_charTab__C)

.const:xdc_runtime_Text_nameEmpty__C 
*          0    00000578    00000004     
                  00000578    00000004     app_ble_uartlog_pem3.oem3 (.const:xdc_runtime_Text_nameEmpty__C)

.const:xdc_runtime_Text_nameStatic__C 
*          0    0000057c    00000004     
                  0000057c    00000004     app_ble_uartlog_pem3.oem3 (.const:xdc_runtime_Text_nameStatic__C)

.const:xdc_runtime_Text_nameUnknown__C 
*          0    00000580    00000004     
                  00000580    00000004     app_ble_uartlog_pem3.oem3 (.const:xdc_runtime_Text_nameUnknown__C)

.const:xdc_runtime_Main_Module__id__C 
*          0    00000584    00000002     
                  00000584    00000002     app_ble_uartlog_pem3.oem3 (.const:xdc_runtime_Main_Module__id__C)

.const:xdc_runtime_Memory_Module__id__C 
*          0    00000586    00000002     
                  00000586    00000002     app_ble_uartlog_pem3.oem3 (.const:xdc_runtime_Memory_Module__id__C)

.const:xdc_runtime_Text_charCnt__C 
*          0    00000588    00000002     
                  00000588    00000002     app_ble_uartlog_pem3.oem3 (.const:xdc_runtime_Text_charCnt__C)

.const:xdc_runtime_Text_isLoaded__C 
*          0    0000058a    00000002     
                  0000058a    00000002     app_ble_uartlog_pem3.oem3 (.const:xdc_runtime_Text_isLoaded__C)

.const:xdc_runtime_Error_policy__C 
*          0    0000058c    00000001     
                  0000058c    00000001     app_ble_uartlog_pem3.oem3 (.const:xdc_runtime_Error_policy__C)

.const:ti_sysbios_rom_ROM_AONRTCChannelEnable 
*          0    00000590    00000004     
                  00000590    00000004     app_ble_uartlog_pem3.oem3 (.const:ti_sysbios_rom_ROM_AONRTCChannelEnable)

.const:ti_sysbios_rom_ROM_AONRTCCompareValueSet 
*          0    00000594    00000004     
                  00000594    00000004     app_ble_uartlog_pem3.oem3 (.const:ti_sysbios_rom_ROM_AONRTCCompareValueSet)

.const:ti_sysbios_rom_ROM_AONRTCCurrentCompareValueGet 
*          0    00000598    00000004     
                  00000598    00000004     app_ble_uartlog_pem3.oem3 (.const:ti_sysbios_rom_ROM_AONRTCCurrentCompareValueGet)

.const:ti_sysbios_rom_ROM_AONRTCEventClear 
*          0    0000059c    00000004     
                  0000059c    00000004     app_ble_uartlog_pem3.oem3 (.const:ti_sysbios_rom_ROM_AONRTCEventClear)

.const:ti_sysbios_rom_ROM_ti_sysbios_family_arm_cc26xx_Timer_getCount64__E 
*          0    000005a0    00000004     
                  000005a0    00000004     app_ble_uartlog_pem3.oem3 (.const:ti_sysbios_rom_ROM_ti_sysbios_family_arm_cc26xx_Timer_getCount64__E)

.const:ti_sysbios_rom_ROM_ti_sysbios_family_arm_cc26xx_Timer_getCurrentTick__E 
*          0    000005a4    00000004     
                  000005a4    00000004     app_ble_uartlog_pem3.oem3 (.const:ti_sysbios_rom_ROM_ti_sysbios_family_arm_cc26xx_Timer_getCurrentTick__E)

.const:ti_sysbios_rom_ROM_ti_sysbios_family_arm_cc26xx_Timer_getMaxTicks__E 
*          0    000005a8    00000004     
                  000005a8    00000004     app_ble_uartlog_pem3.oem3 (.const:ti_sysbios_rom_ROM_ti_sysbios_family_arm_cc26xx_Timer_getMaxTicks__E)

.const:ti_sysbios_rom_ROM_ti_sysbios_family_arm_cc26xx_Timer_initDevice__I 
*          0    000005ac    00000004     
                  000005ac    00000004     app_ble_uartlog_pem3.oem3 (.const:ti_sysbios_rom_ROM_ti_sysbios_family_arm_cc26xx_Timer_initDevice__I)

.const:ti_sysbios_rom_ROM_ti_sysbios_family_arm_cc26xx_Timer_setNextTick__E 
*          0    000005b0    00000004     
                  000005b0    00000004     app_ble_uartlog_pem3.oem3 (.const:ti_sysbios_rom_ROM_ti_sysbios_family_arm_cc26xx_Timer_setNextTick__E)

.const:ti_sysbios_rom_ROM_ti_sysbios_family_arm_cc26xx_Timer_setThreshold__I 
*          0    000005b4    00000004     
                  000005b4    00000004     app_ble_uartlog_pem3.oem3 (.const:ti_sysbios_rom_ROM_ti_sysbios_family_arm_cc26xx_Timer_setThreshold__I)

.const:ti_sysbios_rom_ROM_ti_sysbios_family_arm_cc26xx_Timer_start__E 
*          0    000005b8    00000004     
                  000005b8    00000004     app_ble_uartlog_pem3.oem3 (.const:ti_sysbios_rom_ROM_ti_sysbios_family_arm_cc26xx_Timer_start__E)

.const:ti_sysbios_rom_ROM_ti_sysbios_family_arm_cc26xx_TimestampProvider_get32__E 
*          0    000005bc    00000004     
                  000005bc    00000004     app_ble_uartlog_pem3.oem3 (.const:ti_sysbios_rom_ROM_ti_sysbios_family_arm_cc26xx_TimestampProvider_get32__E)

.const:ti_sysbios_rom_ROM_xdc_runtime_Startup_getState__I 
*          0    000005c0    00000004     
                  000005c0    00000004     app_ble_uartlog_pem3.oem3 (.const:ti_sysbios_rom_ROM_xdc_runtime_Startup_getState__I)

.const:ti_sysbios_rom_ROM_xdc_runtime_System_SupportProxy_abort__E 
*          0    000005c4    00000004     
                  000005c4    00000004     app_ble_uartlog_pem3.oem3 (.const:ti_sysbios_rom_ROM_xdc_runtime_System_SupportProxy_abort__E)

.const:ti_sysbios_rom_ROM_xdc_runtime_System_SupportProxy_exit__E 
*          0    000005c8    00000004     
                  000005c8    00000004     app_ble_uartlog_pem3.oem3 (.const:ti_sysbios_rom_ROM_xdc_runtime_System_SupportProxy_exit__E)

.const:ti_sysbios_gates_GateMutex_Instance_State_sem__O 
*          0    000005cc    00000004     
                  000005cc    00000004     app_ble_uartlog_pem3.oem3 (.const:ti_sysbios_gates_GateMutex_Instance_State_sem__O)

.const:ti_sysbios_knl_Clock_Module_State_clockQ__O 
*          0    000005d0    00000004     
                  000005d0    00000004     app_ble_uartlog_pem3.oem3 (.const:ti_sysbios_knl_Clock_Module_State_clockQ__O)

.const:ti_sysbios_knl_Mailbox_Instance_State_dataQue__O 
*          0    000005d4    00000004     
                  000005d4    00000004     app_ble_uartlog_pem3.oem3 (.const:ti_sysbios_knl_Mailbox_Instance_State_dataQue__O)

.const:ti_sysbios_knl_Mailbox_Instance_State_dataSem__O 
*          0    000005d8    00000004     
                  000005d8    00000004     app_ble_uartlog_pem3.oem3 (.const:ti_sysbios_knl_Mailbox_Instance_State_dataSem__O)

.const:ti_sysbios_knl_Mailbox_Instance_State_freeQue__O 
*          0    000005dc    00000004     
                  000005dc    00000004     app_ble_uartlog_pem3.oem3 (.const:ti_sysbios_knl_Mailbox_Instance_State_freeQue__O)

.const:ti_sysbios_knl_Mailbox_Instance_State_freeSem__O 
*          0    000005e0    00000004     
                  000005e0    00000004     app_ble_uartlog_pem3.oem3 (.const:ti_sysbios_knl_Mailbox_Instance_State_freeSem__O)

.const:ti_sysbios_knl_Semaphore_Instance_State_pendQ__O 
*          0    000005e4    00000004     
                  000005e4    00000004     app_ble_uartlog_pem3.oem3 (.const:ti_sysbios_knl_Semaphore_Instance_State_pendQ__O)

.const:ti_sysbios_knl_Task_Module_State_inactiveQ__O 
*          0    000005e8    00000004     
                  000005e8    00000004     app_ble_uartlog_pem3.oem3 (.const:ti_sysbios_knl_Task_Module_State_inactiveQ__O)

.text.4    0    000005ec    0000bdcc     
                  000005ec    000004ec     data_service.obj (.text:Data_Service_WriteAttrCB)
                  00000ad8    000003e8     peripheral.obj (.text:gapRole_processGAPMsg)
                  00000ec0    000003a8     button_service.obj (.text:ButtonService_SetParameter)
                  00001268    00000398     led_service.obj (.text:LED_Service_WriteAttrCB)
                  00001600    0000037c     rf_singleMode_cc26xxware.aem3 : RFCC26XX_singleMode.oem3 (.text:fsmActiveState)
                  0000197c    00000370     data_service.obj (.text:DataService_SetParameter)
                  00001cec    00000360     peripheral.obj (.text:GAPRole_SetParameter)
                  0000204c    00000338     rom_sysbios.aem3 : rom_sysbios.obj (.text:xdc_runtime_System_doPrint__I)
                  00002384    000002b0     project_zero.obj (.text:ProjectZero_init)
                  00002634    00000288     button_service.obj (.text:Button_Service_ReadAttrCB)
                  000028bc    00000284     data_service.obj (.text:Data_Service_ReadAttrCB)
                  00002b40    00000284     led_service.obj (.text:LED_Service_ReadAttrCB)
                  00002dc4    00000280     led_service.obj (.text:LedService_SetParameter)
                  00003044    00000228     drivers_cc26xxware.aem3 : PowerCC26XX.oem3 (.text:Power_sleep)
                  0000326c    00000204     driverlib.lib : sys_ctrl.obj (.text:NOROM_SysCtrlSetRechargeBeforePowerDown)
                  00003470    000001f4     rtsv7M3_T_le_eabi.lib : ull_div_t2.obj (.text)
                  00003664    000001e0     button_service.obj (.text:Button_Service_WriteAttrCB)
                  00003844    000001d0     drivers_cc26xxware.aem3 : PowerCC26XX_calibrateRCOSC.oem3 (.text:calibrateRcoscHf1)
                  00003a14    000001cc     rf_singleMode_cc26xxware.aem3 : RFCC26XX_singleMode.oem3 (.text:abortCmd)
                  00003be0    000001c4     drivers_cc26xxware.aem3 : PINCC26XX.oem3 (.text:PIN_init)
                  00003da4    000001bc     peripheral.obj (.text:GAPRole_GetParameter)
                  00003f60    000001b0     rf_singleMode_cc26xxware.aem3 : RFCC26XX_singleMode.oem3 (.text:RF_postCmd)
                  00004110    000001ac     project_zero.obj (.text:AMPERO_Meas02)
                  000042bc    00000184     drivers_cc26xxware.aem3 : PowerCC26XX_calibrateRCOSC.oem3 (.text:PowerCC26XX_doCalibrate)
                  00004440    0000017c     uart_logs.obj (.text:uartLog_doPrint)
                  000045bc    0000016c     devinfoservice.obj (.text:DevInfo_SetParameter)
                  00004728    00000160     drivers_cc26xxware.aem3 : SPICC26XXDMA.oem3 (.text:SPICC26XXDMA_initIO)
                  00004888    0000015c     peripheral.obj (.text:gapRole_taskFxn)
                  000049e4    00000148     button_service.obj (.text:ButtonService_RegisterAppCBs)
                  00004b2c    00000148     drivers_cc26xxware.aem3 : SPICC26XXDMA.oem3 (.text:SPICC26XXDMA_open)
                  00004c74    00000140     data_service.obj (.text:DataService_RegisterAppCBs)
                  00004db4    00000140     led_service.obj (.text:LedService_RegisterAppCBs)
                  00004ef4    00000130     driverlib.lib : setup.obj (.text:NOROM_SetupAfterColdResetWakeupFromShutDownCfg3)
                  00005024    00000128     rf_singleMode_cc26xxware.aem3 : RFCC26XX_singleMode.oem3 (.text:rf_init)
                  0000514c    0000011c     drivers_cc26xxware.aem3 : PowerCC26XX.oem3 (.text:Power_init)
                  00005268    00000118     rf_singleMode_cc26xxware.aem3 : RFCC26XX_singleMode.oem3 (.text:fsmSetupState)
                  00005380    00000118                                   : RFCC26XX_singleMode.oem3 (.text:hwiFxnCpe0Active)
                  00005498    0000010c     button_service.obj (.text:ButtonService_AddService)
                  000055a4    00000104     devinfoservice.obj (.text:devInfo_ReadAttrCB)
                  000056a8    00000104     project_zero.obj (.text:user_LedService_ValueChangeHandler)
                  000057ac    000000fc     peripheral.obj (.text:gapRole_init)
                  000058a8    000000fc     rtsv7M3_T_le_eabi.lib : fd_mul_t2.obj (.text)
                  000059a4    000000f8     app_ble_uartlog_pem3.oem3 (.text:xdc_runtime_System_printfExtend__I)
                  00005a9c    000000f4     icall.obj (.text:ICall_primWaitMatch)
                  00005b90    000000ec     drivers_cc26xxware.aem3 : SPICC26XXDMA.oem3 (.text:SPICC26XXDMA_transferCancel)
                  00005c7c    000000e8     data_service.obj (.text:DataService_AddService)
                  00005d64    000000e4     driverlib.lib : setup.obj (.text:NOROM_SetupAfterColdResetWakeupFromShutDownCfg2)
                  00005e48    000000dc     scif_framework.obj (.text:scifInit)
                  00005f24    000000d8     rf_singleMode_cc26xxware.aem3 : RFCC26XX_singleMode.oem3 (.text:fsmPowerUpState)
                  00005ffc    000000d4     drivers_cc26xxware.aem3 : PowerCC26XX.oem3 (.text:Power_releaseDependency)
                  000060d0    000000d4                             : SPICC26XXDMA.oem3 (.text:SPICC26XXDMA_configDMA)
                  000061a4    000000d0                             : PowerCC26XX.oem3 (.text:Power_setDependency)
                  00006274    000000cc     driverlib.lib : setup.obj (.text:TrimAfterColdResetWakeupFromShutDown)
                  00006340    000000cc     project_zero.obj (.text:buttonDebounceSwiFxn)
                  0000640c    000000c4     rf_singleMode_cc26xxware.aem3 : RFCC26XX_singleMode.oem3 (.text:RF_open)
                  000064d0    000000c4     drivers_cc26xxware.aem3 : SPICC26XXDMA.oem3 (.text:SPICC26XXDMA_transfer)
                  00006594    000000bc     power_cc26xx_tirtos.aem3 : PowerCC26XX_tirtos.oem3 (.text:PowerCC26XX_standbyPolicy)
                  00006650    000000b8     drivers_cc26xxware.aem3 : PINCC26XX.oem3 (.text:PINCC26XX_setIoCfg)
                  00006708    000000b4     project_zero.obj (.text:ADC_Data_Disp02)
                  000067bc    000000b4     scif_framework.obj (.text:scifCtrlTasksNbl)
                  00006870    000000ac     gattservapp_util.obj (.text:GATTServApp_ProcessCharCfg)
                  0000691c    000000ac     uart_logs.obj (.text:uartLog_outputFxn)
                  000069c8    000000a8     rf_singleMode_cc26xxware.aem3 : RFCC26XX_singleMode.oem3 (.text:swiFxnHw)
                  00006a70    000000a4     driverlib.lib : setup.obj (.text:NOROM_SetupTrimDevice)
                  00006b14    000000a2     drivers_cc26xxware.aem3 : SPICC26XXDMA.oem3 (.text:SPICC26XXDMA_hwiFxn)
                  00006bb6    00000002     driverlib.lib : rfc.obj (.text:NOROM_RFCAdi3VcoLdoVoltageMode)
                  00006bb8    000000a0     auto_init.aem3 : auto_init.oem3 (.text)
                  00006c58    0000009c     icall.obj (.text:ICall_heapMalloc)
                  00006cf4    0000009c     icall.obj (.text:ICall_primSetTimer)
                  00006d90    0000009c     rtsv7M3_T_le_eabi.lib : memcpy_t2.obj (.text)
                  00006e2c    0000009a     rom_sysbios.aem3 : rom_sysbios.obj (.text:xdc_runtime_Text_putSite__E)
                  00006ec6    00000002     driverlib.lib : rfc.obj (.text:NOROM_RFCRTrim)
                  00006ec8    00000098     icall.obj (.text:ICall_primEnroll)
                  00006f60    00000098     rom_sysbios.aem3 : rom_sysbios.obj (.text:ti_sysbios_knl_Clock_workFuncDynamic__E)
                  00006ff8    00000094     drivers_cc26xxware.aem3 : PINCC26XX.oem3 (.text:PIN_open)
                  0000708c    00000094     project_zero.obj (.text:user_processGapStateChangeEvt)
                  00007120    00000094     rom_sysbios.aem3 : rom_sysbios.obj (.text:xdc_runtime_Text_putMod__E)
                  000071b4    00000090     icall.obj (.text:ICall_createRemoteTasks)
                  00007244    00000090     project_zero.obj (.text:ProjectZero_taskFxn)
                  000072d4    00000090     drivers_cc26xxware.aem3 : PowerCC26XX.oem3 (.text:switchXOSCHFclockFunc)
                  00007364    00000090     uart_logs.obj (.text:uartLog_flush)
                  000073f4    0000008c     driverlib.lib : osc.obj (.text:NOROM_OSCHF_GetStartupTime)
                  00007480    0000008c     drivers_cc26xxware.aem3 : SPICC26XXDMA.oem3 (.text:SPICC26XXDMA_control)
                  0000750c    0000008c     TRNGCC26XX.obj (.text:TRNGCC26XX_getNumber)
                  00007598    0000008c     peripheral.obj (.text:gapRole_startConnUpdate)
                  00007624    0000008c     scif_framework.obj (.text:scifResetTaskStructs)
                  000076b0    00000088     icall.obj (.text:ICall_primRegisterApp)
                  00007738    00000084     icall_cc2650.obj (.text:ICallPlatform_pwrUpdActivityCounter)
                  000077bc    00000084     icall.obj (.text:ICall_heapInit)
                  00007840    00000080     icall.obj (.text:ICall_newTask)
                  000078c0    00000080     rf_singleMode_cc26xxware.aem3 : RFCC26XX_singleMode.oem3 (.text:RF_pendCmd)
                  00007940    00000080     scif_framework.obj (.text:osalWaitOnCtrlReady)
                  000079c0    0000007e     gattservapp_util.obj (.text:gattServApp_SendNotiInd)
                  00007a3e    00000002     drivers_cc26xxware.aem3 : SPICC26XXDMA.oem3 (.text:SPICC26XXDMA_serviceISR)
                  00007a40    0000007c     icall.obj (.text:ICall_primThreadServes)
                  00007abc    0000007c     drivers_cc26xxware.aem3 : PowerCC26XX.oem3 (.text:disableLFClockQualifiers)
                  00007b38    0000007a     rtsv7M3_T_le_eabi.lib : memset_t2.obj (.text)
                  00007bb2    00000002     rf_singleMode_cc26xxware.aem3 : RFCC26XX_singleMode.oem3 (.text:defaultErrCb)
                  00007bb4    00000078     driverlib.lib : setup.obj (.text:NOROM_SetupAfterColdResetWakeupFromShutDownCfg1)
                  00007c2c    00000078     project_zero.obj (.text:Util_convertArrayToHexString)
                  00007ca4    00000074     drivers_cc26xxware.aem3 : PowerCC26XX_calibrateRCOSC.oem3 (.text:PowerCC26XX_auxISR)
                  00007d18    00000074                             : PowerCC26XX_calibrateRCOSC.oem3 (.text:calibrateRcoscHf2)
                  00007d8c    00000074     rf_singleMode_cc26xxware.aem3 : RFCC26XX_singleMode.oem3 (.text:fsmPowerDownState)
                  00007e00    00000070     project_zero.obj (.text:DAC_SPI_Init)
                  00007e70    00000070     icall.obj (.text:ICall_primSend)
                  00007ee0    00000070     driverlib.lib : chipinfo.obj (.text:NOROM_ChipInfo_GetHwRevision)
                  00007f50    0000006d     rom_sysbios.aem3 : rom_sysbios.obj (.text:xdc_runtime_System_formatNum__I)
                  00007fbd    00000001     --HOLE-- [fill = 0]
                  00007fbe    00000002     drivers_cc26xxware.aem3 : PowerCC26XX.oem3 (.text:emptyClockFunc)
                  00007fc0    0000006c     driverlib.lib : setup.obj (.text:NOROM_SetupGetTrimForAmpcompCtrl)
                  0000802c    0000006c     drivers_cc26xxware.aem3 : PINCC26XX.oem3 (.text:PIN_add)
                  00008098    0000006c                             : PowerCC26XX.oem3 (.text:PowerCC26XX_calibrate)
                  00008104    0000006a     rtsv7M3_T_le_eabi.lib : copy_decompress_rle.obj (.text)
                  0000816e    00000002                           : i_div0.obj (.text)
                  00008170    00000068     driverlib.lib : setup.obj (.text:NOROM_SetupGetTrimForAnabypassValue1)
                  000081d8    00000068                   : sys_ctrl.obj (.text:NOROM_SysCtrl_DCDC_VoltageConditionalControl)
                  00008240    00000068     rf_singleMode_cc26xxware.aem3 : RFCC26XX_singleMode.oem3 (.text:RF_getCurrentTime)
                  000082a8    00000068                                   : RFCC26XX_singleMode.oem3 (.text:RF_getInfo)
                  00008310    00000068     project_zero.obj (.text:bspSpiOpen)
                  00008378    00000064     project_zero.obj (.text:DAC_SPI_WriteReg)
                  000083dc    00000064     icall.obj (.text:ICall_primGetEntityId)
                  00008440    00000064     rf_singleMode_cc26xxware.aem3 : RFCC26XX_singleMode.oem3 (.text:decActiveClientCnt)
                  000084a4    00000064     rom_sysbios.aem3 : rom_sysbios.obj (.text:ti_sysbios_family_arm_cc26xx_Timer_start__E)
                  00008508    00000060     drivers_cc26xxware.aem3 : PowerCC26XX_calibrateRCOSC.oem3 (.text:PowerCC26XX_RCOSC_clockFunc)
                  00008568    00000060                             : SPICC26XXDMA.oem3 (.text:SPICC26XXDMA_initHw)
                  000085c8    00000060                             : PowerCC26XX_calibrateRCOSC.oem3 (.text:updateSubSecInc)
                  00008628    0000005c     icall_cc2650.obj (.text:ICallPlatform_pwrRegisterNotify)
                  00008684    0000005c     icall.obj (.text:ICall_primWait)
                  000086e0    0000005c     driverlib.lib : osc.obj (.text:NOROM_OSCHF_AttemptToSwitchToXosc)
                  0000873c    0000005c                   : sys_ctrl.obj (.text:NOROM_SysCtrlAdjustRechargeAfterPowerDown)
                  00008798    0000005c     drivers_cc26xxware.aem3 : PINCC26XX.oem3 (.text:PIN_remove)
                  000087f4    0000005c                             : UDMACC26XX.oem3 (.text:UDMACC26XX_open)
                  00008850    0000005c     util.obj (.text:Util_convertBdAddr2Str)
                  000088ac    0000005c     app_ble_uartlog_pem3.oem3 (.text:xdc_runtime_Startup_getState__I)
                  00008908    0000005b     rom_sysbios.aem3 : rom_sysbios.obj (.text:xdc_runtime_Text_putLab__E)
                  00008963    00000001     --HOLE-- [fill = 0]
                  00008964    0000005a     drivers_cc26xxware.aem3 : SPICC26XXDMA.oem3 (.text:SPICC26XXDMA_close)
                  000089be    0000005a     project_zero.obj (.text:user_processApplicationMessage)
                  00008a18    00000058     button_service.obj (.text:Button_Service_findCharParamId)
                  00008a70    00000058     data_service.obj (.text:Data_Service_findCharParamId)
                  00008ac8    00000058     led_service.obj (.text:LED_Service_findCharParamId)
                  00008b20    00000058     drivers_cc26xxware.aem3 : PowerCC26XX_calibrateRCOSC.oem3 (.text:PowerCC26XX_initiateCalibration)
                  00008b78    00000058     util.obj (.text:Util_constructClock)
                  00008bd0    00000058     rf_singleMode_cc26xxware.aem3 : RFCC26XX_singleMode.oem3 (.text:fsmXOSCState)
                  00008c28    00000058     scif_framework.obj (.text:scifInitIo)
                  00008c80    00000054     gattservapp_util.obj (.text:GATTServApp_ProcessCCCWriteReq)
                  00008cd4    00000054     drivers_cc26xxware.aem3 : PowerCC26XX.oem3 (.text:configureXOSCHF)
                  00008d28    00000054     rf_singleMode_cc26xxware.aem3 : RFCC26XX_singleMode.oem3 (.text:dispatchOpWhen)
                  00008d7c    00000054                                   : RFCC26XX_singleMode.oem3 (.text:hwiFxnHw)
                  00008dd0    00000054                                   : RFCC26XX_singleMode.oem3 (.text:ratChanFree)
                  00008e24    00000054     project_zero.obj (.text:user_enqueueCharDataMsg)
                  00008e78    00000052     drivers_cc26xxware.aem3 : SPICC26XXDMA.oem3 (.text:SPICC26XXDMA_swiFxn)
                  00008eca    00000002     project_zero.obj (.text:scCtrlReadyCallback)
                  00008ecc    00000050     project_zero.obj (.text:ADC_Sample)
                  00008f1c    00000050     icall_api.obj (.text:GAP_DeviceInit)
                  00008f6c    00000050     icall.obj (.text:ICall_init)
                  00008fbc    00000050     icall.obj (.text:ICall_searchTask)
                  0000900c    00000050     driverlib.lib : setup.obj (.text:NOROM_SetupSetCacheModeAccordingToCcfgSetting)
                  0000905c    00000050     project_zero.obj (.text:ProjectZero_sendAttRsp)
                  000090ac    00000050     peripheral.obj (.text:gapRole_processStackMsg)
                  000090fc    00000050     rf_singleMode_cc26xxware.aem3 : RFCC26XX_singleMode.oem3 (.text:syncCb)
                  0000914c    0000004c     driverlib.lib : osc.obj (.text:NOROM_OSCClockSourceSet)
                  00009198    0000004c     rf_singleMode_cc26xxware.aem3 : RFCC26XX_singleMode.oem3 (.text:applyRfCorePatch)
                  000091e4    0000004c     icall_api.obj (.text:gattIndNoti)
                  00009230    0000004c     rtsv7M3_T_le_eabi.lib : cpy_tbl.obj (.text)
                  0000927c    0000004c     rom_sysbios.aem3 : rom_sysbios.obj (.text:xdc_runtime_Text_visitRope2__I)
                  000092c8    0000004a     icall.obj (.text:ICall_primCreateTask)
                  00009312    00000002     project_zero.obj (.text:scTaskAlertCallback)
                  00009314    00000048     icall_api.obj (.text:GAP_UpdateAdvertisingData)
                  0000935c    00000048     icall.obj (.text:ICall_searchServiceEntity)
                  000093a4    00000048     driverlib.lib : chipinfo.obj (.text:NOROM_ChipInfo_GetChipFamily)
                  000093ec    00000048                   : ddi.obj (.text:NOROM_DDI16BitfieldWrite)
                  00009434    00000048     drivers_cc26xxware.aem3 : PINCC26XX.oem3 (.text:PIN_swi)
                  0000947c    00000048     rf_singleMode_cc26xxware.aem3 : RFCC26XX_singleMode.oem3 (.text:RF_getRssi)
                  000094c4    00000048                                   : RFCC26XX_singleMode.oem3 (.text:RF_runCmd)
                  0000950c    00000048     drivers_cc26xxware.aem3 : PowerCC26XX.oem3 (.text:notify)
                  00009554    00000048     rtsv7M3_T_le_eabi.lib : fd_toi_t2.obj (.text)
                  0000959c    00000044     main.obj (.text:AssertHandler)
                  000095e0    00000044     icall_cc2650.obj (.text:ICallPlatform_pwrConfigACAction)
                  00009624    00000044     boot.aem3 : boot.oem3 (.text)
                  00009668    00000044     rtsv7M3_T_le_eabi.lib : exit.obj (.text)
                  000096ac    00000044     rom_sysbios.aem3 : rom_sysbios.obj (.text:xdc_runtime_LoggerCallback_write8__E)
                  000096f0    00000044                      : rom_sysbios.obj (.text:xdc_runtime_Text_xprintf__I)
                  00009734    00000042     icall_api.obj (.text:sendWaitMatchValueCS)
                  00009776    00000002     rom_sysbios.aem3 : rom_sysbios.obj (.text:ti_sysbios_BIOS_linkedWithIncorrectBootLibrary__E)
                  00009778    00000040     icall_api.obj (.text:GAPBondMgr_LinkEst)
                  000097b8    00000040     icall_api.obj (.text:GAP_TerminateLinkReq)
                  000097f8    00000040     icall_api.obj (.text:GATTServApp_RegisterService)
                  00009838    00000040     icall_api.obj (.text:ICall_waitMatch)
                  00009878    00000040     driverlib.lib : ddi.obj (.text:NOROM_DDI16BitfieldRead)
                  000098b8    00000040     rtsv7M3_T_le_eabi.lib : u_divt2.obj (.text)
                  000098f8    00000040     icall_api.obj (.text:sendWaitMatchCS)
                  00009938    00000040     project_zero.obj (.text:user_enqueueRawAppMsg)
                  00009978    00000040     rom_sysbios.aem3 : rom_sysbios.obj (.text:xdc_runtime_LoggerCallback_Module_startup__E)
                  000099b8    0000003e     icall_api.obj (.text:gapSendParamAndPtrCmd)
                  000099f6    00000002     app_ble_uartlog_pem3.oem3 (.text:ti_sysbios_BIOS_nullFunc__I)
                  000099f8    0000003c     peripheral.obj (.text:GAPRole_createTask)
                  00009a34    0000003c     icall_api.obj (.text:GAP_GetParamValue)
                  00009a70    0000003c     gattservapp_util.obj (.text:GATTServApp_InitCharCfg)
                  00009aac    0000003c     icall.obj (.text:ICall_primEntityId2ServiceId)
                  00009ae8    0000003c     driverlib.lib : osc.obj (.text:NOROM_OSC_HPOSCRelativeFrequencyOffsetGet)
                  00009b24    0000003c                   : rfc.obj (.text:NOROM_RFCSynthPowerDown)
                  00009b60    0000003c     drivers_cc26xxware.aem3 : PINCC26XX.oem3 (.text:PINCC26XX_getConfig)
                  00009b9c    0000003c                             : PINCC26XX.oem3 (.text:PIN_setOutputValue)
                  00009bd8    0000003c     project_zero.obj (.text:ProjectZero_createTask)
                  00009c14    0000003c     project_zero.obj (.text:ProjectZero_processGATTMsg)
                  00009c50    0000003c     drivers_cc26xxware.aem3 : SPICC26XXDMA.oem3 (.text:SPICC26XXDMA_csnCallback)
                  00009c8c    0000003c     icall_api.obj (.text:hciSendParamsCmd)
                  00009cc8    0000003c     rf_singleMode_cc26xxware.aem3 : RFCC26XX_singleMode.oem3 (.text:postDirImmCmd)
                  00009d04    0000003c     icall_api.obj (.text:profileSetParameter)
                  00009d40    00000038     icall_api.obj (.text:GAPBondMgr_PasscodeRsp)
                  00009d78    00000038     icall_api.obj (.text:GAPBondMgr_SetParameter)
                  00009db0    00000038     peripheral.obj (.text:GAPRole_SendUpdateParam)
                  00009de8    00000038     icall_api.obj (.text:GATT_SendRsp)
                  00009e20    00000038     icall.obj (.text:ICall_primGetMaxMSecs)
                  00009e58    00000038     drivers_cc26xxware.aem3 : PINCC26XX.oem3 (.text:PIN_setInterrupt)
                  00009e90    00000038     peripheral.obj (.text:gapRole_HandleParamUpdateNoSuccess)
                  00009ec8    00000038     icall_api.obj (.text:linkDB_NumConns)
                  00009f00    00000038     icall_api.obj (.text:osal_snv_read)
                  00009f38    00000038     icall_api.obj (.text:osal_snv_write)
                  00009f70    00000038     scif_framework.obj (.text:scifOsalInit)
                  00009fa8    00000038     rom_sysbios.aem3 : rom_sysbios.obj (.text:ti_sysbios_family_arm_cc26xx_Timer_getCurrentTick__E)
                  00009fe0    00000036     icall.obj (.text:ICall_primRegisterISR)
                  0000a016    00000002     rom_sysbios.aem3 : rom_sysbios.obj (.text:ti_sysbios_knl_Clock_triggerFunc__I)
                  0000a018    00000008     (.tramp.ti_sysbios_hal_Hwi_create.1)
                  0000a020    00000036     icall.obj (.text:ICall_primRegisterISR_Ext)
                  0000a056    00000036     drivers_cc26xxware.aem3 : UDMACC26XX.oem3 (.text:UDMACC26XX_close)
                  0000a08c    00000036     icall_api.obj (.text:gapSendParamsCmd)
                  0000a0c2    00000036     icall_api.obj (.text:gapSendPtrParamsCmd)
                  0000a0f8    00000036     icall_api.obj (.text:matchGapSetGetParamCS)
                  0000a12e    00000036     icall_api.obj (.text:matchGattCmdStatus)
                  0000a164    00000036     icall_api.obj (.text:matchUtilNvCS)
                  0000a19a    00000036     rf_singleMode_cc26xxware.aem3 : RFCC26XX_singleMode.oem3 (.text:updateImplicitState)
                  0000a1d0    00000034     icall_api.obj (.text:GAP_SetParamValue)
                  0000a204    00000034     peripheral.obj (.text:ICall_fetchServiceMsg)
                  0000a238    00000034     project_zero.obj (.text:ICall_fetchServiceMsg)
                  0000a26c    00000034     icall.obj (.text:ICall_primFetchMsg)
                  0000a2a0    00000034     driverlib.lib : osc.obj (.text:NOROM_OSCHF_SwitchToRcOscTurnOffXosc)
                  0000a2d4    00000034                   : trng.obj (.text:NOROM_TRNGConfigure)
                  0000a308    00000034     drivers_cc26xxware.aem3 : PINCC26XX.oem3 (.text:PIN_setConfig)
                  0000a33c    00000034                             : PowerCC26XX.oem3 (.text:PowerCC26XX_isStableXOSC_HF)
                  0000a370    00000034     rf_singleMode_cc26xxware.aem3 : RFCC26XX_singleMode.oem3 (.text:Q_push)
                  0000a3a4    00000034     TRNGCC26XX.obj (.text:TRNGCC26XX_isParamValid)
                  0000a3d8    00000034     util.obj (.text:Util_restartClock)
                  0000a40c    00000034     project_zero.obj (.text:buttonCallbackFxn)
                  0000a440    00000034     scif_framework.obj (.text:osalRegisterCtrlReadyInt)
                  0000a474    00000034     scif_framework.obj (.text:osalRegisterTaskAlertInt)
                  0000a4a8    00000034     icall_api.obj (.text:profileAddService)
                  0000a4dc    00000034     icall_api.obj (.text:registerTask)
                  0000a510    00000034     scif_framework.obj (.text:scifReinitIo)
                  0000a544    00000034     scif_framework.obj (.text:scifUninitIo)
                  0000a578    00000034     rom_sysbios.aem3 : rom_sysbios.obj (.text:xdc_runtime_LoggerCallback_write4__E)
                  0000a5ac    00000032     icall_cc2650.obj (.text:ICallPlatform_pwrNotify)
                  0000a5de    00000032     icall.obj (.text:ICall_msgEnqueue)
                  0000a610    00000032     icall_api.obj (.text:matchProfileAddServiceCS)
                  0000a642    00000032     rom_sysbios.aem3 : rom_sysbios.obj (.text:ti_sysbios_family_arm_cc26xx_Timer_setNextTick__E)
                  0000a674    00000030     icall.obj (.text:ICall_heapFree)
                  0000a6a4    00000030     icall.obj (.text:ICall_msecs2Ticks)
                  0000a6d4    00000030     driverlib.lib : setup.obj (.text:NOROM_SetupSetAonRtcSubSecInc)
                  0000a704    00000030     drivers_cc26xxware.aem3 : PowerCC26XX.oem3 (.text:Power_releaseConstraint)
                  0000a734    00000030                             : PowerCC26XX.oem3 (.text:Power_setConstraint)
                  0000a764    00000030     project_zero.obj (.text:ProjectZero_freeAttRsp)
                  0000a794    00000030     drivers_cc26xxware.aem3 : SPI.oem3 (.text:SPI_open)
                  0000a7c4    00000030     project_zero.obj (.text:bspSpiWrite)
                  0000a7f4    00000030     rf_singleMode_cc26xxware.aem3 : RFCC26XX_singleMode.oem3 (.text:clkPowerUpFxn)
                  0000a824    00000030     peripheral.obj (.text:gapRole_SetupGAP)
                  0000a854    00000030     main.obj (.text:main)
                  0000a884    00000008     (.tramp.ti_sysbios_BIOS_start__E.1)
                  0000a88c    00000030     scif.obj (.text:scifStartRtcTicksNow)
                  0000a8bc    00000030     app_ble_uartlog_pem3.oem3 (.text:ti_sysbios_BIOS_atExitFunc__I)
                  0000a8ec    00000008     (.tramp.ti_sysbios_BIOS_setThreadType__E.1)
                  0000a8f4    00000030     app_ble_uartlog_pem3.oem3 (.text:ti_sysbios_BIOS_startFunc__I)
                  0000a924    00000008     (.tramp.xdc_runtime_System_atexit__E.1)
                  0000a92c    00000008     (.tramp.ti_sysbios_family_arm_cc26xx_Timer_startup__E.1)
                  0000a934    00000008     (.tramp.ti_sysbios_hal_Hwi_HwiProxy_startup__E.1)
                  0000a93c    00000008     (.tramp.ti_sysbios_knl_Swi_startup__E.1)
                  0000a944    00000008     (.tramp.ti_sysbios_knl_Task_startup__E.1)
                  0000a94c    00000030     rom_sysbios.aem3 : rom_sysbios.obj (.text:ti_sysbios_family_arm_cc26xx_Timer_initDevice__I)
                  0000a97c    00000030                      : rom_sysbios.obj (.text:ti_sysbios_family_arm_cc26xx_Timer_setThreshold__I)
                  0000a9ac    00000030     app_ble_uartlog_pem3.oem3 (.text:xdc_runtime_LoggerCallback_Object__create__S)
                  0000a9dc    00000008     (.tramp.xdc_runtime_Core_createObject__I.1)
                  0000a9e4    0000002f     rom_sysbios.aem3 : rom_sysbios.obj (.text:xdc_runtime_Text_printVisFxn__I)
                  0000aa13    00000001     --HOLE-- [fill = 0]
                  0000aa14    0000002c     peripheral.obj (.text:GAPRole_TerminateConnection)
                  0000aa40    0000002c     icall_cc2650.obj (.text:ICallPlatform_pwrDispenseImpl)
                  0000aa6c    0000002c     icall_cc2650.obj (.text:ICallPlatform_pwrRequireImpl)
                  0000aa98    0000002c     icall.obj (.text:ICall_primFetchServiceMsg)
                  0000aac4    0000002c     peripheral.obj (.text:ICall_registerApp)
                  0000aaf0    0000002c     project_zero.obj (.text:ICall_registerApp)
                  0000ab1c    0000002c     icall_api.obj (.text:ICall_sendServiceMsg)
                  0000ab48    0000002c     driverlib.lib : ddi.obj (.text:NOROM_DDI32RegWrite)
                  0000ab74    0000002c                   : setup.obj (.text:NOROM_SetupGetTrimForRadcExtCfg)
                  0000aba0    0000002c     drivers_cc26xxware.aem3 : PINCC26XX.oem3 (.text:PINCC26XX_setMux)
                  0000abcc    0000002c     rf_singleMode_cc26xxware.aem3 : RFCC26XX_singleMode.oem3 (.text:getCmd)
                  0000abf8    0000002c     scif.obj (.text:scifStartRtcTicks)
                  0000ac24    0000002c     rom_sysbios.aem3 : rom_sysbios.obj (.text:ti_sysbios_knl_Clock_getTicksUntilInterrupt__E)
                  0000ac50    0000002c                      : rom_sysbios.obj (.text:xdc_runtime_LoggerCallback_write2__E)
                  0000ac7c    0000002a     icall.obj (.text:ICall_msgDequeue)
                  0000aca6    0000002a     icall.obj (.text:ICall_msgPrepend)
                  0000acd0    0000002a     icall.obj (.text:ICall_primAllocMsg)
                  0000acfa    0000002a     project_zero.obj (.text:user_updateCharVal)
                  0000ad24    0000002a     rom_sysbios.aem3 : rom_sysbios.obj (.text:xdc_runtime_System_putchar__I)
                  0000ad4e    00000002     app_ble_uartlog_pem3.oem3 (.text:ti_sysbios_rom_cortexm_cc26xx_CC26xx_badRomRevision__E)
                  0000ad50    00000028     project_zero.obj (.text:ADC_Init)
                  0000ad78    00000028     icall_api.obj (.text:GAPBondMgr_LinkTerm)
                  0000ada0    00000028     icall_api.obj (.text:GAPBondMgr_Register)
                  0000adc8    00000028     icall_api.obj (.text:ICall_allocMsg)
                  0000adf0    00000028     icall_api.obj (.text:ICall_getEntityId)
                  0000ae18    00000028     icall_api.obj (.text:ICall_getLocalMsgEntityId)
                  0000ae40    00000028     button_service.obj (.text:ICall_malloc)
                  0000ae68    00000028     data_service.obj (.text:ICall_malloc)
                  0000ae90    00000028     devinfoservice.obj (.text:ICall_malloc)
                  0000aeb8    00000028     project_zero.obj (.text:ICall_malloc)
                  0000aee0    00000028     icall_api.obj (.text:ICall_threadServes)
                  0000af08    00000028     driverlib.lib : aon_batmon.obj (.text:NOROM_AONBatMonTemperatureGetDegC)
                  0000af30    00000028     drivers_cc26xxware.aem3 : PowerCC26XX.oem3 (.text:PowerCC26XX_switchXOSC_HF)
                  0000af58    00000028                             : PowerCC26XX.oem3 (.text:Power_registerNotify)
                  0000af80    00000028                             : SPICC26XXDMA.oem3 (.text:SPICC26XXDMA_flushFifos)
                  0000afa8    00000028     driverlib.lib : adi.obj (.text:SafeHapiVoid)
                  0000afd0    00000028     TRNGCC26XX.obj (.text:TRNGCC26XX_init)
                  0000aff8    00000028     gattservapp_util.obj (.text:gattServApp_FindCharCfgItem)
                  0000b020    00000028     icall_api.obj (.text:matchProfileCS)
                  0000b048    00000028     scif_framework.obj (.text:osalIndicateCtrlReady)
                  0000b070    00000028     scif.obj (.text:scifStopRtcTicks)
                  0000b098    00000028     rom_sysbios.aem3 : rom_sysbios.obj (.text:ti_sysbios_family_arm_cc26xx_Timer_getMaxTicks__E)
                  0000b0c0    00000028                      : rom_sysbios.obj (.text:xdc_runtime_LoggerCallback_write0__E)
                  0000b0e8    00000028                      : rom_sysbios.obj (.text:xdc_runtime_LoggerCallback_write1__E)
                  0000b110    00000026     gattservapp_util.obj (.text:GATTServApp_WriteCharCfg)
                  0000b136    00000026     icall.obj (.text:ICall_dispatch)
                  0000b15c    00000026     drivers_cc26xxware.aem3 : List.oem3 (.text:List_put)
                  0000b182    00000026     icall_api.obj (.text:waitMatchCS)
                  0000b1a8    00000024     peripheral.obj (.text:GAPRole_StartDevice)
                  0000b1cc    00000024     icall_api.obj (.text:GATT_bm_alloc)
                  0000b1f0    00000024     icall_api.obj (.text:HCI_EXT_ConnEventNoticeCmd)
                  0000b214    00000024     drivers_cc26xxware.aem3 : PINCC26XX.oem3 (.text:PINCC26XX_getPinCount)
                  0000b238    00000024                             : PowerCC26XX_calibrateRCOSC.oem3 (.text:getTdcSemaphore)
                  0000b25c    00000024     rf_singleMode_cc26xxware.aem3 : RFCC26XX_singleMode.oem3 (.text:hwiFxnCpe0PowerFsm)
                  0000b280    00000024     scif_framework.obj (.text:osalLockCtrlTaskNbl)
                  0000b2a4    00000024     app_ble_uartlog_pem3.oem3 (.text:ti_sysbios_BIOS_registerRTSLock__I)
                  0000b2c8    00000024     app_ble_uartlog_pem3.oem3 (.text:ti_sysbios_BIOS_removeRTSLock__I)
                  0000b2ec    00000024     project_zero.obj (.text:user_DataService_ValueChangeHandler)
                  0000b310    00000022     gattservapp_util.obj (.text:GATTServApp_FindAttr)
                  0000b332    00000022     rtsv7M3_T_le_eabi.lib : memcmp.obj (.text)
                  0000b354    00000022     project_zero.obj (.text:user_handleButtonPress)
                  0000b376    00000002     project_zero.obj (.text:user_gapBondMgr_pairStateCB)
                  0000b378    00000020     devinfoservice.obj (.text:ICall_free)
                  0000b398    00000020     project_zero.obj (.text:ICall_free)
                  0000b3b8    00000020     icall.obj (.text:ICall_freeMsg)
                  0000b3d8    00000020     icall_api.obj (.text:ICall_freeMsg)
                  0000b3f8    00000020     peripheral.obj (.text:ICall_freeMsg)
                  0000b418    00000020     project_zero.obj (.text:ICall_freeMsg)
                  0000b438    00000020     icall.obj (.text:ICall_primService)
                  0000b458    00000020     icall.obj (.text:ICall_searchService)
                  0000b478    00000020     peripheral.obj (.text:ICall_wait)
                  0000b498    00000020     project_zero.obj (.text:ICall_wait)
                  0000b4b8    00000020     driverlib.lib : rfc.obj (.text:NOROM_RFCDoorbellSendTo)
                  0000b4d8    00000020                   : rfc.obj (.text:NOROM_RFCRfTrimRead)
                  0000b4f8    00000020                   : setup.obj (.text:NOROM_SetupGetTrimForXoscHfCtl)
                  0000b518    00000020     drivers_cc26xxware.aem3 : PowerCC26XX.oem3 (.text:Power_unregisterNotify)
                  0000b538    00000020     TRNGCC26XX.obj (.text:TRNGCC26XX_open)
                  0000b558    00000020     rf_singleMode_cc26xxware.aem3 : RFCC26XX_singleMode.oem3 (.text:allocCmd)
                  0000b578    00000020     rtsv7M3_T_le_eabi.lib : u_tofd_t2.obj (.text)
                  0000b598    00000020     app_ble_uartlog_pem3.oem3 (.text:ti_sysbios_BIOS_rtsLock__I)
                  0000b5b8    00000008     (.tramp.ti_sysbios_BIOS_RtsGateProxy_enter__E.1)
                  0000b5c0    00000020     rom_sysbios.aem3 : rom_sysbios.obj (.text:ti_sysbios_knl_Clock_stop__E)
                  0000b5e0    00000020                      : rom_sysbios.obj (.text:xdc_runtime_Registry_findById__E)
                  0000b600    0000001e     icall_api.obj (.text:GATT_Notification)
                  0000b61e    0000001e     icall.obj (.text:ICall_primSendServiceMsg)
                  0000b63c    0000001e     drivers_cc26xxware.aem3 : PINCC26XX.oem3 (.text:PIN_close)
                  0000b65a    0000001e                             : PowerCC26XX.oem3 (.text:Power_getTransitionLatency)
                  0000b678    0000001e     icall_api.obj (.text:getStatusValueFromErrNo)
                  0000b696    0000001e     icall_api.obj (.text:matchHciCS)
                  0000b6b4    0000001c     icall_api.obj (.text:GATT_bm_free)
                  0000b6d0    0000001c     icall.obj (.text:ICall_abort)
                  0000b6ec    0000001c     driverlib.lib : osc.obj (.text:NOROM_OSCClockSourceGet)
                  0000b708    0000001c                   : setup.obj (.text:NOROM_SetupGetTrimForAmpcompTh2)
                  0000b724    0000001c                   : setup.obj (.text:NOROM_SetupGetTrimForRcOscLfRtuneCtuneTrim)
                  0000b740    0000001c     drivers_cc26xxware.aem3 : PINCC26XX.oem3 (.text:PINCC26XX_setIoCfgMux)
                  0000b75c    0000001c                             : PINCC26XX.oem3 (.text:PIN_hwi)
                  0000b778    0000001c                             : UDMACC26XX.oem3 (.text:UDMACC26XX_initHw)
                  0000b794    0000001c     rom_sysbios.aem3 : rom_sysbios.obj (.text:ti_sysbios_family_arm_cc26xx_Timer_dynamicStub__E)
                  0000b7b0    0000001c                      : rom_sysbios.obj (.text:ti_sysbios_family_arm_m3_Hwi_clearInterrupt__E)
                  0000b7cc    0000001c                      : rom_sysbios.obj (.text:xdc_runtime_LoggerCallback_Instance_init__E)
                  0000b7e8    0000001a     icall_cc2650.obj (.text:ICallPlatform_pwrDispense)
                  0000b802    0000001a     icall_cc2650.obj (.text:ICallPlatform_pwrRequire)
                  0000b81c    0000001a     icall.obj (.text:ICall_enterCSImpl)
                  0000b836    0000001a     icall.obj (.text:ICall_primMalloc)
                  0000b850    0000001a     icall.obj (.text:ICall_primSetTimerMSecs)
                  0000b86a    0000001a     drivers_cc26xxware.aem3 : List.oem3 (.text:List_remove)
                  0000b884    0000001a     icall_api.obj (.text:matchGattIndNotiCS)
                  0000b89e    0000001a     project_zero.obj (.text:user_gapBondMgr_passcodeCB)
                  0000b8b8    0000001a     project_zero.obj (.text:user_service_CfgChangeCB)
                  0000b8d2    0000001a     project_zero.obj (.text:user_service_ValueChangeCB)
                  0000b8ec    0000001a     rom_sysbios.aem3 : rom_sysbios_config.obj (.text:xdc_runtime_System_snprintf__E)
                  0000b906    00000002                      : rom_sysbios.obj (.text:xdc_runtime_SysCallback_defaultAbort)
                  0000b908    00000018     icall_api.obj (.text:GGS_SetParameter)
                  0000b920    00000018     icall.obj (.text:ICall_initPrim)
                  0000b938    00000018     icall.obj (.text:ICall_primStopTimer)
                  0000b950    00000018     driverlib.lib : aon_rtc.obj (.text:NOROM_AONRTCCurrentCompareValueGet)
                  0000b968    00000018                   : chipinfo.obj (.text:NOROM_ChipInfo_GetPackageType)
                  0000b980    00000018                   : osc.obj (.text:NOROM_OSCHF_TurnOnXosc)
                  0000b998    00000018                   : rfc.obj (.text:NOROM_RFCCpeIntGetAndClear)
                  0000b9b0    00000018                   : setup.obj (.text:NOROM_SetupGetTrimForAdcShModeEn)
                  0000b9c8    00000018                   : setup.obj (.text:NOROM_SetupGetTrimForAdcShVbufEn)
                  0000b9e0    00000018                   : setup.obj (.text:NOROM_SetupGetTrimForAmpcompTh1)
                  0000b9f8    00000018                   : setup.obj (.text:NOROM_SetupGetTrimForDblrLoopFilterResetVoltage)
                  0000ba10    00000018                   : setup.obj (.text:NOROM_SetupGetTrimForRcOscLfIBiasTrim)
                  0000ba28    00000018                   : setup.obj (.text:NOROM_SetupGetTrimForXoscLfRegulatorAndCmirrwrRatio)
                  0000ba40    00000018     drivers_cc26xxware.aem3 : PINCC26XX.oem3 (.text:PIN_getConfig)
                  0000ba58    00000018                             : PowerCC26XX.oem3 (.text:Power_idleFunc)
                  0000ba70    00000018     rf_singleMode_cc26xxware.aem3 : RFCC26XX_singleMode.oem3 (.text:Q_pop)
                  0000ba88    00000018                                   : RFCC26XX_singleMode.oem3 (.text:RF_runDirectCmd)
                  0000baa0    00000018                                   : RFCC26XX_singleMode.oem3 (.text:RF_runImmediateCmd)
                  0000bab8    00000018     drivers_cc26xxware.aem3 : PowerCC26XX.oem3 (.text:configureRFCoreClocks)
                  0000bad0    00000018     peripheral.obj (.text:gapRole_setEvent)
                  0000bae8    00000018     TRNGCC26XX.obj (.text:openTRNG)
                  0000bb00    00000018     rtsv7M3_T_le_eabi.lib : args_main.obj (.text)
                  0000bb18    00000018                           : ll_mul_t2.obj (.text)
                  0000bb30    00000018     scif_framework.obj (.text:scifWaitOnNbl)
                  0000bb48    00000018     rf_singleMode_cc26xxware.aem3 : RFCC26XX_singleMode.oem3 (.text:swiFxnFsm)
                  0000bb60    00000018     app_ble_uartlog_pem3.oem3 (.text:ti_sysbios_BIOS_rtsUnlock__I)
                  0000bb78    00000008     (.tramp.ti_sysbios_BIOS_RtsGateProxy_leave__E.1)
                  0000bb80    00000018     rom_sysbios.aem3 : rom_sysbios.obj (.text:ti_sysbios_knl_Swi_or__E)
                  0000bb98    00000018     app_ble_uartlog_pem3.oem3 (.text:ti_sysbios_rom_cortexm_cc26xx_CC26xx_checkRevision__E)
                  0000bbb0    00000016     ble_user_config.obj (.text:driverTable_fnSpinlock)
                  0000bbc6    00000016     app_ble_uartlog_pem3.oem3 (.text:ti_sysbios_BIOS_exitFunc__I)
                  0000bbdc    00000014     devinfoservice.obj (.text:DevInfo_AddService)
                  0000bbf0    00000014     icall.obj (.text:ICall_leaveCSImpl)
                  0000bc04    00000014     driverlib.lib : aon_rtc.obj (.text:NOROM_AONRTCCurrent64BitValueGet)
                  0000bc18    00000014                   : chipinfo.obj (.text:NOROM_ThisCodeIsBuiltForCC26xxHwRev22AndLater_HaltIfViolated)
                  0000bc2c    00000014     drivers_cc26xxware.aem3 : PINCC26XX.oem3 (.text:PINCC26XX_getInputValue)
                  0000bc40    00000014                             : PINCC26XX.oem3 (.text:PINCC26XX_getOutputValue)
                  0000bc54    00000014     project_zero.obj (.text:ProjectZero_processStackMsg)
                  0000bc68    00000014     rf_singleMode_cc26xxware.aem3 : RFCC26XX_singleMode.oem3 (.text:RF_Params_init)
                  0000bc7c    00000014     drivers_cc26xxware.aem3 : SPI.oem3 (.text:SPI_Params_init)
                  0000bc90    00000014     scif_framework.obj (.text:osalIndicateTaskAlert)
                  0000bca4    00000014     rtsv7M3_T_le_eabi.lib : _lock.obj (.text)
                  0000bcb8    00000014                           : strlen.obj (.text)
                  0000bccc    00000014     icall_api.obj (.text:setICallCmdEvtHdr)
                  0000bce0    00000014     app_ble_uartlog_pem3.oem3 (.text:ti_sysbios_knl_Clock_doTick__I)
                  0000bcf4    00000008     (.tramp.ti_sysbios_knl_Clock_logTick__E.1)
                  0000bcfc    00000012     rf_singleMode_cc26xxware.aem3 : RFCC26XX_singleMode.oem3 (.text:RF_getCmdOp)
                  0000bd0e    00000012     rom_sysbios.aem3 : rom_sysbios.obj (.text:ti_sysbios_knl_Semaphore_reset__E)
                  0000bd20    00000012     project_zero.obj (.text:user_gapStateChangeCB)
                  0000bd32    00000012     app_ble_uartlog_pem3.oem3 (.text:xdc_runtime_Startup_exec__I)
                  0000bd44    00000008     (.tramp.xdc_runtime_Startup_startMods__I.1)
                  0000bd4c    00000010     rf_singleMode_cc26xxware.aem3 : RFCC26XX_singleMode.oem3 (.text:FsmDispatch)
                  0000bd5c    00000010     icall_api.obj (.text:GAP_EndDiscoverable)
                  0000bd6c    00000010     icall_api.obj (.text:GAP_UpdateLinkParamReq)
                  0000bd7c    00000010     icall_api.obj (.text:GAP_UpdateLinkParamReqReply)
                  0000bd8c    00000010     gattservapp_util.obj (.text:GATTServApp_ReadCharCfg)
                  0000bd9c    00000010     icall_cc2650.obj (.text:ICallPlatform_pwrGetXOSCStartupTime)
                  0000bdac    00000010     icall.obj (.text:ICall_primGetTickPeriod)
                  0000bdbc    00000010     icall.obj (.text:ICall_taskEntry)
                  0000bdcc    00000010     driverlib.lib : rfc.obj (.text:NOROM_RFCRfTrimSet)
                  0000bddc    00000010                   : setup.obj (.text:NOROM_SetupGetTrimForXoscHfFastStart)
                  0000bdec    00000010                   : setup.obj (.text:NOROM_SetupGetTrimForXoscHfIbiastherm)
                  0000bdfc    00000010     util.obj (.text:Util_isActive)
                  0000be0c    00000010     rom_sysbios.aem3 : rom_sysbios.obj (.text:ti_sysbios_family_arm_m3_Hwi_post__E)
                  0000be1c    00000010     app_ble_uartlog_pem3.oem3 (.text:xdc_runtime_LoggerCallback_Object__get__S)
                  0000be2c    00000010     rom_sysbios.aem3 : rom_sysbios.obj (.text:xdc_runtime_SysCallback_putch__E)
                  0000be3c    00000010                      : rom_sysbios.obj (.text:xdc_runtime_SysCallback_ready__E)
                  0000be4c    00000010                      : rom_sysbios.obj (.text:xdc_runtime_System_vsnprintf__E)
                  0000be5c    0000000e     icall_cc2650.obj (.text:ICallPlatform_pwrGetTransitionState)
                  0000be6a    0000000e     icall_cc2650.obj (.text:ICallPlatform_pwrIsStableXOSCHF)
                  0000be78    0000000e     icall.obj (.text:ICall_primDisableMInt)
                  0000be86    0000000e     icall.obj (.text:ICall_primEnableMInt)
                  0000be94    00000008     (.tramp.ti_sysbios_family_arm_m3_Hwi_enableFxn__E.1)
                  0000be9c    00000008     (.tramp.ti_sysbios_knl_Task_enable__E.1)
                  0000bea4    0000000e     icall.obj (.text:ICall_primFreeMsg)
                  0000beb2    0000000e     icall.obj (.text:ICall_primGetTicks)
                  0000bec0    0000000e     driverlib.lib : setup.obj (.text:NOROM_SetupSignExtendVddrTrimValue)
                  0000bece    0000000e                   : vims.obj (.text:NOROM_VIMSModeGet)
                  0000bedc    0000000e     drivers_cc26xxware.aem3 : SPICC26XXDMA.oem3 (.text:SPICC26XXDMA_init)
                  0000beea    0000000e     rtsv7M3_T_le_eabi.lib : copy_decompress_none.obj (.text:decompress:none)
                  0000bef8    0000000e     icall_api.obj (.text:matchGSARegisterServiceCS)
                  0000bf06    0000000e     icall_api.obj (.text:matchGapLinkEstCS)
                  0000bf14    0000000e     icall_api.obj (.text:matchGapPasscodeCS)
                  0000bf22    0000000e     icall_api.obj (.text:matchGattSendRspCS)
                  0000bf30    0000000e     icall_api.obj (.text:matchLinkDBNumConnsCS)
                  0000bf3e    0000000e     scif.obj (.text:scifTaskResourceInit)
                  0000bf4c    0000000e     icall_api.obj (.text:setDispatchCmdEvtHdr)
                  0000bf5a    0000000e     rom_sysbios.aem3 : rom_sysbios.obj (.text:ti_sysbios_family_arm_cc26xx_TimestampProvider_get32__E)
                  0000bf68    0000000c     icall_api.obj (.text:GAP_MakeDiscoverable)
                  0000bf74    0000000c     icall_api.obj (.text:GAP_TerminateAuth)
                  0000bf80    0000000c     icall_api.obj (.text:GATT_Indication)
                  0000bf8c    0000000c     icall.obj (.text:ICall_clockFunc)
                  0000bf98    0000000c     icall.obj (.text:ICall_primDisableInt)
                  0000bfa4    00000008     (.tramp.ti_sysbios_hal_Hwi_HwiProxy_disableInterrupt__E.1)
                  0000bfac    0000000c     icall.obj (.text:ICall_primEnableInt)
                  0000bfb8    00000008     (.tramp.ti_sysbios_hal_Hwi_HwiProxy_enableInterrupt__E.1)
                  0000bfc0    0000000c     icall.obj (.text:ICall_primFree)
                  0000bfcc    0000000c     icall.obj (.text:ICall_primSignal)
                  0000bfd8    0000000c     driverlib.lib : cpu.obj (.text:NOROM_CPUcpsid)
                  0000bfe4    0000000c                   : cpu.obj (.text:NOROM_CPUcpsie)
                  0000bff0    0000000c     drivers_cc26xxware.aem3 : PINCC26XX.oem3 (.text:PIN_registerIntCb)
                  0000bffc    0000000c                             : PowerCC26XX.oem3 (.text:Power_getConstraintMask)
                  0000c008    0000000c                             : PowerCC26XX.oem3 (.text:Power_getDependencyCount)
                  0000c014    0000000c                             : PowerCC26XX.oem3 (.text:Power_getTransitionState)
                  0000c020    0000000c     ble_user_config.obj (.text:RegisterAssertCback)
                  0000c02c    0000000c     rtsv7M3_T_le_eabi.lib : copy_zero_init.obj (.text:decompress:ZI)
                  0000c038    0000000c     icall_api.obj (.text:matchProfileSetParamCS)
                  0000c044    0000000c     scif_framework.obj (.text:osalCtrlReadyIsr)
                  0000c050    0000000c     scif_framework.obj (.text:osalTaskAlertIsr)
                  0000c05c    0000000c     scif_framework.obj (.text:osalUnlockCtrlTaskNbl)
                  0000c068    0000000c     scif_framework.obj (.text:scifOsalRegisterCtrlReadyCallback)
                  0000c074    0000000c     scif_framework.obj (.text:scifOsalRegisterTaskAlertCallback)
                  0000c080    0000000c     drivers_cc26xxware.aem3 : SPICC26XXDMA.oem3 (.text:spiPostNotify)
                  0000c08c    0000000c     rom_sysbios.aem3 : rom_sysbios.obj (.text:ti_sysbios_BIOS_getThreadType__E)
                  0000c098    0000000c                      : rom_sysbios_config.obj (.text:ti_sysbios_hal_Hwi_Params__init__S)
                  0000c0a4    00000008     (.tramp.xdc_runtime_Core_assignParams__I.1)
                  0000c0ac    0000000c                      : rom_sysbios.obj (.text:ti_sysbios_knl_Swi_getTrigger__E)
                  0000c0b8    0000000c     app_ble_uartlog_pem3.oem3 (.text:xdc_runtime_Startup_reset__I)
                  0000c0c4    0000000c     rom_sysbios.aem3 : rom_sysbios.obj (.text:xdc_runtime_Startup_rtsDone__E)
                  0000c0d0    0000000a     icall_cc2650.obj (.text:ICallPlatform_pwrSwitchXOSCHF)
                  0000c0da    0000000a     icall.obj (.text:ICall_primAbort)
                  0000c0e4    0000000a     icall.obj (.text:ICall_primE2S)
                  0000c0ee    0000000a     drivers_cc26xxware.aem3 : List.oem3 (.text:List_empty)
                  0000c0f8    0000000a                             : SPI.oem3 (.text:SPI_transfer)
                  0000c102    0000000a                             : UART.oem3 (.text:UART_write)
                  0000c10c    0000000a                             : UDMACC26XX.oem3 (.text:UDMACC26XX_hwiIntFxn)
                  0000c116    0000000a     scif_framework.obj (.text:scifFindLeastSignificant1)
                  0000c120    0000000a     scif.obj (.text:scifTaskResourceUninit)
                  0000c12a    0000000a     rom_sysbios.aem3 : rom_sysbios.obj (.text:xdc_runtime_LoggerCallback_disable__E)
                  0000c134    0000000a                      : rom_sysbios.obj (.text:xdc_runtime_LoggerCallback_enable__E)
                  0000c13e    0000000a     app_ble_uartlog_pem3.oem3 (.text:xdc_runtime_Text_visitRope__I)
                  0000c148    00000008     icall_api.obj (.text:GAP_RegisterForMsgs)
                  0000c150    00000008     icall_api.obj (.text:GATT_RegisterForMsgs)
                  0000c158    00000008     icall_api.obj (.text:GGS_AddService)
                  0000c160    00000008     rf_singleMode_cc26xxware.aem3 : RFCC26XX_singleMode.oem3 (.text:RF_flushCmd)
                  0000c168    00000008     drivers_cc26xxware.aem3 : SPICC26XXDMA.oem3 (.text:SPICC26XXDMA_transferCallback)
                  0000c170    00000008     icall_api.obj (.text:gattAddService)
                  0000c178    00000008     icall_api.obj (.text:matchHciExtConnEventNoticeCS)
                  0000c180    00000006     icall_api.obj (.text:GATTServApp_AddService)
                  0000c186    00000006     icall.obj (.text:ICall_mallocImpl)
                  0000c18c    00000006     driverlib.lib : cpu.obj (.text:NOROM_CPUdelay)
                  0000c192    00000006     rom_sysbios.aem3 : rom_sysbios.obj (.text:__xdc__init)
                  0000c198    00000006     project_zero.obj (.text:calcDacDataLSB)
                  0000c19e    00000006     rf_singleMode_cc26xxware.aem3 : RFCC26XX_singleMode.oem3 (.text:clkInactivityFxn)
                  0000c1a4    00000006     rtsv7M3_T_le_eabi.lib : copy_decompress_rle.obj (.text:decompress:rle24)
                  0000c1aa    00000006     icall_api.obj (.text:matchBondMgrSetParamCS)
                  0000c1b0    00000006     icall_api.obj (.text:matchGGSSetParamCS)
                  0000c1b6    00000006     icall_api.obj (.text:matchGapConnParamUpdateReplyCS)
                  0000c1bc    00000006     icall_api.obj (.text:matchGapDeviceInitCS)
                  0000c1c2    00000006     icall_api.obj (.text:matchGapEndDiscoverableCS)
                  0000c1c8    00000006     icall_api.obj (.text:matchGapGetParamCS)
                  0000c1ce    00000006     icall_api.obj (.text:matchGapMakeDiscoverableCS)
                  0000c1d4    00000006     icall_api.obj (.text:matchGapSetParamCS)
                  0000c1da    00000006     icall_api.obj (.text:matchGapTerminateAuthCS)
                  0000c1e0    00000006     icall_api.obj (.text:matchGapTerminateLinkReqCS)
                  0000c1e6    00000006     icall_api.obj (.text:matchGapUpdateAdvDataCS)
                  0000c1ec    00000006     icall_api.obj (.text:matchGapUpdateLinkParamReqCS)
                  0000c1f2    00000006     icall_api.obj (.text:matchUtilNvReadCS)
                  0000c1f8    00000006     icall_api.obj (.text:matchUtilNvWriteCS)
                  0000c1fe    00000006     scif_framework.obj (.text:osalClearCtrlReadyInt)
                  0000c204    00000006     scif_framework.obj (.text:osalClearTaskAlertInt)
                  0000c20a    00000006     scif_framework.obj (.text:osalDisableCtrlReadyInt)
                  0000c210    00000008     (.tramp.ti_sysbios_family_arm_m3_Hwi_disableInterrupt__E.1)
                  0000c218    00000006     scif_framework.obj (.text:osalDisableTaskAlertInt)
                  0000c21e    00000006     scif_framework.obj (.text:osalEnableCtrlReadyInt)
                  0000c224    00000006     scif_framework.obj (.text:osalEnableTaskAlertInt)
                  0000c22a    00000006     scif_framework.obj (.text:scifStartTasksNbl)
                  0000c230    00000006     scif_framework.obj (.text:scifStopTasksNbl)
                  0000c236    00000006     rom_sysbios.aem3 : rom_sysbios.obj (.text:ti_sysbios_family_arm_m3_Hwi_setFunc__E)
                  0000c23c    00000004     tirtosport.aem3 : HwiP_tirtos.oem3 (.text:HwiP_disable)
                  0000c240    00000004     drivers_cc26xxware.aem3 : List.oem3 (.text:List_next)
                  0000c244    00000004     rf_singleMode_cc26xxware.aem3 : RFCC26XX_singleMode.oem3 (.text:Q_peek)
                  0000c248    00000004     util.obj (.text:Util_stopClock)
                  0000c24c    00000004     drivers_cc26xxware.aem3 : PowerCC26XX.oem3 (.text:nopResourceHandler)
                  0000c250    00000004     rom_sysbios.aem3 : rom_sysbios.obj (.text:ti_sysbios_family_arm_cc26xx_Timer_getCount64__E)
                  0000c254    00000004                      : rom_sysbios.obj (.text:ti_sysbios_knl_Clock_isActive__E)
                  0000c258    00000004                      : rom_sysbios.obj (.text:xdc_runtime_LoggerCallback_defaultCreate)
                  0000c25c    00000004                      : rom_sysbios.obj (.text:xdc_runtime_SysCallback_defaultReady)
                  0000c260    00000004                      : rom_sysbios.obj (.text:xdc_runtime_System_snprintf_va__F)
                  0000c264    00000002                      : rom_sysbios.obj (.text:xdc_runtime_SysCallback_defaultExit)
                  0000c266    00000002                      : rom_sysbios.obj (.text:xdc_runtime_SysCallback_defaultPutch)
                  0000c268    00000008     (.tramp.ti_sysbios_knl_Task_construct.1)
                  0000c270    00000008     (.tramp.xdc_runtime_System_exit__E.1)
                  0000c278    00000008     (.tramp.ti_sysbios_knl_Queue_enqueue__E.1)
                  0000c280    00000008     (.tramp.ti_sysbios_knl_Semaphore_destruct.1)
                  0000c288    00000008     (.tramp.ti_sysbios_knl_Swi_destruct.1)
                  0000c290    00000008     (.tramp.ti_sysbios_family_arm_m3_Hwi_destruct.1)
                  0000c298    00000008     (.tramp.ti_sysbios_BIOS_getCpuFreq__E.1)
                  0000c2a0    00000008     (.tramp.ti_sysbios_knl_Semaphore_create.1)
                  0000c2a8    00000008     (.tramp.ti_sysbios_knl_Queue_dequeue__E.1)
                  0000c2b0    00000008     (.tramp.ti_sysbios_knl_Queue_empty__E.1)
                  0000c2b8    00000008     (.tramp.ti_sysbios_knl_Task_create.1)
                  0000c2c0    00000008     (.tramp.ti_sysbios_knl_Task_Params__init__S.1)
                  0000c2c8    00000008     (.tramp.ti_sysbios_knl_Clock_scheduleNextTick__E.1)
                  0000c2d0    00000008     (.tramp.ti_sysbios_knl_Clock_walkQueueDynamic__E.1)
                  0000c2d8    00000008     (.tramp.ti_sysbios_knl_Clock_TimerProxy_getCurrentTick__E.1)
                  0000c2e0    00000008     (.tramp.ti_sysbios_knl_Clock_create.1)
                  0000c2e8    00000008     (.tramp.ti_sysbios_knl_Swi_post__E.1)
                  0000c2f0    00000008     (.tramp.ti_sysbios_family_arm_m3_Hwi_enableInterrupt__E.1)
                  0000c2f8    00000008     (.tramp.ti_sysbios_knl_Semaphore_post__E.1)
                  0000c300    00000008     (.tramp.ti_sysbios_knl_Semaphore_pend__E.1)
                  0000c308    00000008     (.tramp.ti_sysbios_knl_Clock_getTicks__E.1)
                  0000c310    00000008     (.tramp.ti_sysbios_knl_Task_self__E.1)
                  0000c318    00000008     (.tramp.xdc_runtime_Text_ropeText__E.1)
                  0000c320    00000008     (.tramp.xdc_runtime_System_abortSpin__E.1)
                  0000c328    00000008     (.tramp.ti_sysbios_knl_Swi_construct.1)
                  0000c330    00000008     (.tramp.ti_sysbios_knl_Swi_Params__init__S.1)
                  0000c338    00000008     (.tramp.ti_sysbios_family_arm_m3_Hwi_construct.1)
                  0000c340    00000008     (.tramp.ti_sysbios_family_arm_m3_Hwi_Params__init__S.1)
                  0000c348    00000008     (.tramp.ti_sysbios_knl_Semaphore_construct.1)
                  0000c350    00000008     (.tramp.ti_sysbios_knl_Semaphore_Params__init__S.1)
                  0000c358    00000008     (.tramp.ti_sysbios_knl_Task_restore__E.1)
                  0000c360    00000008     (.tramp.ti_sysbios_knl_Swi_restore__E.1)
                  0000c368    00000008     (.tramp.ti_sysbios_knl_Swi_disable__E.1)
                  0000c370    00000008     (.tramp.ti_sysbios_knl_Task_disable__E.1)
                  0000c378    00000008     (.tramp.ti_sysbios_knl_Clock_construct.1)
                  0000c380    00000008     (.tramp.ti_sysbios_knl_Clock_Params__init__S.1)
                  0000c388    00000008     (.tramp.ti_sysbios_knl_Task_exit__E.1)
                  0000c390    00000008     (.tramp.ti_sysbios_knl_Queue_construct.1)
                  0000c398    00000008     (.tramp.ti_sysbios_knl_Clock_start__E.1)
                  0000c3a0    00000008     (.tramp.ti_sysbios_knl_Clock_setTimeout__E.1)
                  0000c3a8    00000008     (.tramp.ti_sysbios_family_arm_m3_Hwi_restoreFxn__E.1)
                  0000c3b0    00000008     (.tramp.ti_sysbios_family_arm_m3_Hwi_disableFxn__E.1)

.const.1   0    0000c3b8    00001c48     
                  0000c3b8    000017c0     app_ble_uartlog_pem3.oem3 (.const:xdc_runtime_Text_charTab__A)
                  0000db78    00000280     scif.obj (.const:pAuxRamImage)
                  0000ddf8    000000b4     icall.obj (.const:ICall_primSvcFuncs)
                  0000deac    00000054     drivers_cc26xxware.aem3 : SPICC26XXDMA.oem3 (.const)
                  0000df00    0000004c                             : PowerCC26XX.oem3 (.const:resourceDB)
                  0000df4c    0000004c     ble_user_config.obj (.const:rfDriverTable)
                  0000df98    00000048     app_ble_uartlog_pem3.oem3 (.const:.string)
                  0000dfe0    00000020     drivers_cc26xxware.aem3 : SPI.oem3 (.const)

.const.2   0    0001f000    00000404     
                  0001f000    00000038     CC2640_RING.obj (.const:spiCC26XXDMAHWAttrs)
                  0001f038    00000034     app_ble_uartlog_pem3.oem3 (.const:xdc_runtime_LoggerCallback_Module__FXNS__C)
                  0001f06c    00000030     button_service.obj (.const:.string)
                  0001f09c    00000030     data_service.obj (.const:.string)
                  0001f0cc    00000030     led_service.obj (.const:.string)
                  0001f0fc    0000002c     gatt_uuid.obj (.const:.string)
                  0001f128    0000002c     CC2640_RING.obj (.const:BoardGpioInitTable)
                  0001f154    00000028     project_zero.obj (.const:.string:$P$T0$1)
                  0001f17c    00000028     app_ble_uartlog_pem3.oem3 (.const:xdc_runtime_Startup_sfxnTab__A)
                  0001f1a4    00000027     ble_user_config.obj (.const:txPowerTable)
                  0001f1cb    00000001     --HOLE-- [fill = 0]
                  0001f1cc    00000024     CC2640_RING.obj (.const:SPI_config)
                  0001f1f0    00000024     scif.obj (.const:scifDriverSetup)
                  0001f214    00000020     app_ble_uartlog_pem3.oem3 (.const:xdc_runtime_LoggerCallback_Object__DESC__C)
                  0001f234    0000001c     app_ble_uartlog_pem3.oem3 (.const:xdc_runtime_LoggerCallback_Object__PARAMS__C)
                  0001f250    00000018     icall.obj (.const)
                  0001f268    00000014     devinfoservice.obj (.const:.string)
                  0001f27c    00000014     ble_user_config.obj (.const)
                  0001f290    00000014     button_service.obj (.const)
                  0001f2a4    00000014     data_service.obj (.const)
                  0001f2b8    00000014     devinfoservice.obj (.const)
                  0001f2cc    00000014     led_service.obj (.const)
                  0001f2e0    00000014     rf_singleMode_cc26xxware.aem3 : RFCC26XX_singleMode.oem3 (.const)
                  0001f2f4    00000014     app_ble_uartlog_pem3.oem3 (.const:xdc_runtime_Startup_sfxnRts__A)
                  0001f308    00000011     project_zero.obj (.const:.string)
                  0001f319    00000011     util.obj (.const:.string)
                  0001f32a    00000010     scif.obj (.const:.string)
                  0001f33a    00000002     app_ble_uartlog_pem3.oem3 (.const:xdc_runtime_Main_Module__loggerDefined__C)
                  0001f33c    00000010     CC2640_RING.obj (.const:PowerCC26XX_config)
                  0001f34c    00000010     CC2640_RING.obj (.const:TRNGCC26XX_config)
                  0001f35c    00000010     CC2640_RING.obj (.const:UDMACC26XX_config)
                  0001f36c    00000010     scif.obj (.const)
                  0001f37c    00000010     app_ble_uartlog_pem3.oem3 (.const:xdc_runtime_Text_nodeTab__A)
                  0001f38c    0000000c     app_ble_uartlog_pem3.oem3 (.const:xdc_runtime_Startup_firstFxns__A)
                  0001f398    00000008     CC2640_RING.obj (.const:PINCC26XX_hwAttrs)
                  0001f3a0    00000008     app_ble_uartlog_pem3.oem3 (.const:ti_sysbios_knl_Idle_funcList__A)
                  0001f3a8    00000008     CC2640_RING.obj (.const:udmaHWAttrs)
                  0001f3b0    00000004     CC2640_RING.obj (.const:RFCC26XX_hwAttrs)
                  0001f3b4    00000004     CC2640_RING.obj (.const:TRNGCC26XXHWAttrs)
                  0001f3b8    00000004     icall_cc2650.obj (.const)
                  0001f3bc    00000004     app_ble_uartlog_pem3.oem3 (.const:ti_sysbios_knl_Clock_tickPeriod__C)
                  0001f3c0    00000004     app_ble_uartlog_pem3.oem3 (.const:ti_sysbios_knl_Clock_triggerClock__C)
                  0001f3c4    00000004     app_ble_uartlog_pem3.oem3 (.const:xdc_runtime_ILogger_Interface__BASE__C)
                  0001f3c8    00000004     app_ble_uartlog_pem3.oem3 (.const:xdc_runtime_Log_L_error__C)
                  0001f3cc    00000004     app_ble_uartlog_pem3.oem3 (.const:xdc_runtime_Log_L_info__C)
                  0001f3d0    00000004     app_ble_uartlog_pem3.oem3 (.const:xdc_runtime_Log_L_warning__C)
                  0001f3d4    00000004     app_ble_uartlog_pem3.oem3 (.const:xdc_runtime_LoggerCallback_Object__count__C)
                  0001f3d8    00000004     app_ble_uartlog_pem3.oem3 (.const:xdc_runtime_LoggerCallback_createInstFxn__C)
                  0001f3dc    00000004     app_ble_uartlog_pem3.oem3 (.const:xdc_runtime_LoggerCallback_outputFxn__C)
                  0001f3e0    00000004     app_ble_uartlog_pem3.oem3 (.const:xdc_runtime_Main_Module__loggerFxn4__C)
                  0001f3e4    00000004     app_ble_uartlog_pem3.oem3 (.const:xdc_runtime_Main_Module__loggerFxn8__C)
                  0001f3e8    00000004     app_ble_uartlog_pem3.oem3 (.const:xdc_runtime_Main_Module__loggerObj__C)
                  0001f3ec    00000004     app_ble_uartlog_pem3.oem3 (.const:xdc_runtime_SysCallback_putchFxn__C)
                  0001f3f0    00000004     app_ble_uartlog_pem3.oem3 (.const:xdc_runtime_SysCallback_readyFxn__C)
                  0001f3f4    00000004     app_ble_uartlog_pem3.oem3 (.const:xdc_runtime_System_extendFxn__C)
                  0001f3f8    00000004     app_ble_uartlog_pem3.oem3 (.const:xdc_runtime_Text_nodeTab__C)
                  0001f3fc    00000004     app_ble_uartlog_pem3.oem3 (.const:xdc_runtime_Text_visitRopeFxn__C)
                  0001f400    00000002     app_ble_uartlog_pem3.oem3 (.const:xdc_runtime_Text_registryModsLastId__C)
                  0001f402    00000002     app_ble_uartlog_pem3.oem3 (.const:xdc_runtime_Text_unnamedModsLastId__C)

.args      0    0001f404    00000008     
                  0001f404    00000008     --HOLE-- [fill = 0]

.cinit     0    0001f410    00000810     
                  0001f410    00000641     (.cinit..data.load) [load image, compression = rle]
                  0001fa51    00000007     --HOLE-- [fill = 0]
                  0001fa58    0000002d     (.cinit..data:ti_sysbios_family_arm_m3_Hwi_Module__state__V.load) [load image, compression = rle]
                  0001fa85    00000003     --HOLE-- [fill = 0]
                  0001fa88    0000002c     (.cinit..data:ti_sysbios_knl_Task_Module__state__V.load) [load image, compression = rle]
                  0001fab4    00000004     --HOLE-- [fill = 0]
                  0001fab8    00000021     (.cinit..data:ti_sysbios_knl_Clock_Module__state__V.load) [load image, compression = rle]
                  0001fad9    00000007     --HOLE-- [fill = 0]
                  0001fae0    0000001f     (.cinit..data:ti_sysbios_BIOS_Module__state__V.load) [load image, compression = rle]
                  0001faff    00000001     --HOLE-- [fill = 0]
                  0001fb00    00000011     (.cinit..data:ti_sysbios_knl_Swi_Module__state__V.load) [load image, compression = rle]
                  0001fb11    00000007     --HOLE-- [fill = 0]
                  0001fb18    0000000d     (.cinit..data:ti_sysbios_family_arm_cc26xx_Timer_Module__state__V.load) [load image, compression = rle]
                  0001fb25    00000003     --HOLE-- [fill = 0]
                  0001fb28    0000000c     (__TI_handler_table)
                  0001fb34    00000004     --HOLE-- [fill = 0]
                  0001fb38    0000000a     (.cinit..data:xdc_runtime_Memory_Module__state__V.load) [load image, compression = rle]
                  0001fb42    00000006     --HOLE-- [fill = 0]
                  0001fb48    00000009     (.cinit..data:ti_sysbios_family_arm_cc26xx_TimestampProvider_Module__state__V.load) [load image, compression = rle]
                  0001fb51    00000007     --HOLE-- [fill = 0]
                  0001fb58    00000009     (.cinit..data:xdc_runtime_Startup_Module__state__V.load) [load image, compression = rle]
                  0001fb61    00000007     --HOLE-- [fill = 0]
                  0001fb68    00000009     (.cinit..data:xdc_runtime_System_Module__state__V.load) [load image, compression = rle]
                  0001fb71    00000007     --HOLE-- [fill = 0]
                  0001fb78    00000008     (.cinit..TI.bound:dmaSpi0RxControlTableEntry.load) [load image, compression = zero_init]
                  0001fb80    00000008     (.cinit..TI.bound:dmaSpi0TxControlTableEntry.load) [load image, compression = zero_init]
                  0001fb88    00000008     (.cinit..TI.bound:dmaSpi1RxControlTableEntry.load) [load image, compression = zero_init]
                  0001fb90    00000008     (.cinit..TI.bound:dmaSpi1TxControlTableEntry.load) [load image, compression = zero_init]
                  0001fb98    00000008     (.cinit..bss.load) [load image, compression = zero_init]
                  0001fba0    00000080     (__TI_cinit_table)

.ccfg      0    0001ffa8    00000058     
                  0001ffa8    00000058     ccfg_app_ble.obj (.ccfg:retain)

.vecs      0    20000000    000000c8     NOLOAD SECTION
                  20000000    000000c8     app_ble_uartlog_pem3.oem3 (.vecs)

.data:ti_sysbios_knl_Task_Module__state__V 
*          0    20000100    00000044     UNINITIALIZED
                  20000100    00000044     app_ble_uartlog_pem3.oem3 (.data:ti_sysbios_knl_Task_Module__state__V)

.data:ti_sysbios_family_arm_m3_Hwi_Module__state__V 
*          0    20000144    00000034     UNINITIALIZED
                  20000144    00000034     app_ble_uartlog_pem3.oem3 (.data:ti_sysbios_family_arm_m3_Hwi_Module__state__V)

.data:ti_sysbios_knl_Clock_Module__state__V 
*          0    20000178    0000002c     UNINITIALIZED
                  20000178    0000002c     app_ble_uartlog_pem3.oem3 (.data:ti_sysbios_knl_Clock_Module__state__V)

.data:ti_sysbios_BIOS_Module__state__V 
*          0    200001a4    00000024     UNINITIALIZED
                  200001a4    00000024     app_ble_uartlog_pem3.oem3 (.data:ti_sysbios_BIOS_Module__state__V)

.data:ti_sysbios_knl_Swi_Module__state__V 
*          0    200001c8    0000001c     UNINITIALIZED
                  200001c8    0000001c     app_ble_uartlog_pem3.oem3 (.data:ti_sysbios_knl_Swi_Module__state__V)

.data:ti_sysbios_family_arm_cc26xx_Timer_Module__state__V 
*          0    200001e4    00000008     UNINITIALIZED
                  200001e4    00000008     app_ble_uartlog_pem3.oem3 (.data:ti_sysbios_family_arm_cc26xx_Timer_Module__state__V)

.data:ti_sysbios_family_arm_cc26xx_TimestampProvider_Module__state__V 
*          0    200001ec    00000004     UNINITIALIZED
                  200001ec    00000004     app_ble_uartlog_pem3.oem3 (.data:ti_sysbios_family_arm_cc26xx_TimestampProvider_Module__state__V)

.data:xdc_runtime_Startup_Module__state__V 
*          0    200001f0    00000008     UNINITIALIZED
                  200001f0    00000008     app_ble_uartlog_pem3.oem3 (.data:xdc_runtime_Startup_Module__state__V)

.data:xdc_runtime_System_Module__state__V 
*          0    200001f8    00000008     UNINITIALIZED
                  200001f8    00000008     app_ble_uartlog_pem3.oem3 (.data:xdc_runtime_System_Module__state__V)

.data:xdc_runtime_Memory_Module__state__V 
*          0    20000200    00000004     UNINITIALIZED
                  20000200    00000004     app_ble_uartlog_pem3.oem3 (.data:xdc_runtime_Memory_Module__state__V)

.bootVecs 
*          0    00000000    00000008     DSECT
                  00000000    00000008     boot.aem3 : boot.oem3 (.bootVecs)

xdc.meta   0    00000000    00000107     COPY SECTION
                  00000000    00000107     app_ble_uartlog_pem3.oem3 (xdc.meta)

.init_array 
*          0    00000000    00000000     UNINITIALIZED

.TI.bound:dmaSpi0RxControlTableEntry 
*          0    20000430    00000010     UNINITIALIZED
                  20000430    00000010     drivers_cc26xxware.aem3 : SPICC26XXDMA.oem3 (.TI.bound:dmaSpi0RxControlTableEntry)

.TI.bound:dmaSpi0TxControlTableEntry 
*          0    20000440    00000010     UNINITIALIZED
                  20000440    00000010     drivers_cc26xxware.aem3 : SPICC26XXDMA.oem3 (.TI.bound:dmaSpi0TxControlTableEntry)

.TI.bound:dmaSpi1RxControlTableEntry 
*          0    20000500    00000010     UNINITIALIZED
                  20000500    00000010     drivers_cc26xxware.aem3 : SPICC26XXDMA.oem3 (.TI.bound:dmaSpi1RxControlTableEntry)

.TI.bound:dmaSpi1TxControlTableEntry 
*          0    20000510    00000010     UNINITIALIZED
                  20000510    00000010     drivers_cc26xxware.aem3 : SPICC26XXDMA.oem3 (.TI.bound:dmaSpi1TxControlTableEntry)

.data      0    20000520    000008f4     UNINITIALIZED
                  20000520    00000130     devinfoservice.obj (.data:devInfoAttrTbl)
                  20000650    00000110     drivers_cc26xxware.aem3 : PowerCC26XX.oem3 (.data:PowerCC26XX_module)
                  20000760    000000e8     app_ble_uartlog_pem3.oem3 (.data)
                  20000848    000000a9     devinfoservice.obj (.data)
                  200008f1    00000002     rf_singleMode_cc26xxware.aem3 : RFCC26XX_singleMode.oem3 (.data)
                  200008f3    00000001     TRNGCC26XX.obj (.data)
                  200008f4    000000a6     project_zero.obj (.data)
                  2000099a    00000002     --HOLE--
                  2000099c    00000070     button_service.obj (.data:Button_ServiceAttrTbl)
                  20000a0c    00000070     peripheral.obj (.data)
                  20000a7c    00000060     data_service.obj (.data:Data_ServiceAttrTbl)
                  20000adc    00000050     led_service.obj (.data:LED_ServiceAttrTbl)
                  20000b2c    00000050     ble_user_config.obj (.data:rfRegTbl)
                  20000b7c    0000004c     app_ble_uartlog_pem3.oem3 (.data:ti_sysbios_knl_Task_Object__table__V)
                  20000bc8    00000048     app_ble_uartlog_pem3.oem3 (.data:ti_sysbios_family_arm_cc26xx_Timer_Object__table__V)
                  20000c10    00000038     app_ble_uartlog_pem3.oem3 (.data:ti_sysbios_gates_GateMutex_Object__table__V)
                  20000c48    00000030     app_ble_uartlog_pem3.oem3 (.data:ti_sysbios_knl_Swi_Module_State_0_readyQ__A)
                  20000c78    00000030     app_ble_uartlog_pem3.oem3 (.data:ti_sysbios_knl_Swi_Object__table__V)
                  20000ca8    00000030     app_ble_uartlog_pem3.oem3 (.data:ti_sysbios_knl_Task_Module_State_0_readyQ__A)
                  20000cd8    00000030     main.obj (.data:user0Cfg)
                  20000d08    0000002c     led_service.obj (.data)
                  20000d34    00000028     data_service.obj (.data:ds_StringVal)
                  20000d5c    00000028     project_zero.obj (.data:received_string$3)
                  20000d84    00000020     data_service.obj (.data)
                  20000da4    00000010     icall.obj (.data)
                  20000db4    0000000e     button_service.obj (.data)
                  20000dc2    00000002     --HOLE--
                  20000dc4    0000000c     icall_api.obj (.data)
                  20000dd0    0000000c     scif_framework.obj (.data)
                  20000ddc    0000000a     uart_logs.obj (.data)
                  20000de6    00000002     --HOLE--
                  20000de8    00000008     icall_cc2650.obj (.data)
                  20000df0    00000008     rtsv7M3_T_le_eabi.lib : _lock.obj (.data)
                  20000df8    00000008                           : exit.obj (.data)
                  20000e00    00000008     app_ble_uartlog_pem3.oem3 (.data:xdc_runtime_Registry_Module__state__V)
                  20000e08    00000004     ble_user_config.obj (.data)
                  20000e0c    00000004     drivers_cc26xxware.aem3 : SPI.oem3 (.data)
                  20000e10    00000004     rtsv7M3_T_le_eabi.lib : stkdepth_vars.obj (.data)

.bss       0    20000e18    000020c6     UNINITIALIZED
                  20000e18    00000680     app_ble_uartlog_pem3.oem3 (.bss:ti_sysbios_heaps_HeapMem_Instance_State_0_buf__A)
                  20001498    00000500     uart_logs.obj (.bss:uartLog_evBuf)
                  20001998    00000400     project_zero.obj (.bss:adcValue)
                  20001d98    00000320     project_zero.obj (.bss:przTaskStack)
                  200020b8    00000208     peripheral.obj (.bss:gapRoleTaskStack)
                  200022c0    00000200     app_ble_uartlog_pem3.oem3 (.bss:taskStackSection)
                  200024c0    000001b8     CC2640_RING.obj (.bss:spiCC26XXDMAObjects)
                  20002678    00000100     rf_singleMode_cc26xxware.aem3 : RFCC26XX_singleMode.oem3 (.bss:aCmdPool)
                  20002778    000000c8     app_ble_uartlog_pem3.oem3 (.bss:ti_sysbios_family_arm_m3_Hwi_dispatchTable)
                  20002840    000000ac     uart_logs.obj (.bss:uartLog_outBuf)
                  200028ec    0000007c     drivers_cc26xxware.aem3 : PINCC26XX.oem3 (.bss:PIN_HandleTable)
                  20002968    00000050     peripheral.obj (.bss:gapRoleTask)
                  200029b8    00000050     project_zero.obj (.bss:przTask)
                  20002a08    00000048     icall.obj (.bss:ICall_entities)
                  20002a50    00000040     project_zero.obj (.bss:amperoAdcValue)
                  20002a90    00000034     drivers_cc26xxware.aem3 : PINCC26XX.oem3 (.bss:PinSwi)
                  20002ac4    00000034     rf_singleMode_cc26xxware.aem3 : RFCC26XX_singleMode.oem3 (.bss:swiFsm)
                  20002af8    00000034                                   : RFCC26XX_singleMode.oem3 (.bss:swiHw)
                  20002b2c    00000024     icall.obj (.bss:ICall_tasks)
                  20002b50    00000024     project_zero.obj (.bss:button0DebounceClock)
                  20002b74    00000024     project_zero.obj (.bss:button1DebounceClock)
                  20002b98    00000024     rf_singleMode_cc26xxware.aem3 : RFCC26XX_singleMode.oem3 (.bss:clkPowerUp)
                  20002bbc    00000024     scif_framework.obj (.bss:scifData)
                  20002be0    00000024     peripheral.obj (.bss:startAdvClock)
                  20002c04    00000024     peripheral.obj (.bss:startUpdateClock)
                  20002c28    00000024     peripheral.obj (.bss:updateTimeoutClock)
                  20002c4c    00000020     (.common:PinGpioConfigTable)
                  20002c6c    00000020     (.common:cmdDirImm)
                  20002c8c    00000020     (.common:spiParams)
                  20002cac    00000020     (.common:udmaObjects)
                  20002ccc    0000001c     (.common:PinHwi)
                  20002ce8    0000001c     (.common:PinSem)
                  20002d04    0000001c     (.common:hwiCpe0)
                  20002d20    0000001c     (.common:hwiCtrlReady)
                  20002d3c    0000001c     (.common:hwiHw)
                  20002d58    0000001c     (.common:hwiTaskAlert)
                  20002d74    0000001c     (.common:semCtrlReady)
                  20002d90    00000014     driverlib.lib : osc.obj (.bss:oscHfGlobals)
                  20002da4    00000014     (.common:cmdQ)
                  20002db8    00000014     (.common:opRatSync)
                  20002dcc    00000010     (.common:gapRole_IRK)
                  20002ddc    00000010     (.common:gapRole_SRK)
                  20002dec    00000010     (.common:pretty_data_holder$2)
                  20002dfc    00000010     (.common:str$1)
                  20002e0c    0000000c     (.common:adcPinState)
                  20002e18    0000000c     (.common:applicationMsgQ)
                  20002e24    0000000c     (.common:buttonPinState)
                  20002e30    0000000c     (.common:daccsPinState)
                  20002e3c    0000000c     (.common:ledPinState)
                  20002e48    00000008                   : sys_ctrl.obj (.bss:powerQualGlobals)
                  20002e50    00000008     (.common:gapRole_bdAddr)
                  20002e58    00000004     (.common:HEAPMGR_SIZE)
                  20002e5c    00000004     (.common:ICall_heapCSState)
                  20002e60    00000004     (.common:PIN_NumPins)
                  20002e64    00000004     (.common:activeTimeInUs)
                  20002e68    00000004     (.common:adcPinHandle)
                  20002e6c    00000004     (.common:bs_BUTTON0Config)
                  20002e70    00000004     (.common:bs_BUTTON1Config)
                  20002e74    00000004     (.common:buttonPinHandle)
                  20002e78    00000004     (.common:daccsPinHandle)
                  20002e7c    00000004     (.common:dispHandle)
                  20002e80    00000004     (.common:dispatchInUs)
                  20002e84    00000004     (.common:ds_StreamConfig)
                  20002e88    00000004     (.common:gapRole_signCounter)
                  20002e8c    00000004     (.common:hApplicationMsgQ)
                  20002e90    00000004     (.common:heapmgrFf1)
                  20002e94    00000004     (.common:heapmgrFf2)
                  20002e98    00000004     (.common:heapmgrHeap)
                  20002e9c    00000004     (.common:heapmgrHeapStore)
                  20002ea0    00000004     (.common:ledPinHandle)
                  20002ea4    00000004     (.common:nRtc1)
                  20002ea8    00000004     (.common:nRtc2)
                  20002eac    00000004     (.common:nRtc3)
                  20002eb0    00000004     (.common:pCurrClient)
                  20002eb4    00000004     (.common:pFsmState)
                  20002eb8    00000004     (.common:pPinGpio)
                  20002ebc    00000004     (.common:sem)
                  20002ec0    00000004     (.common:sem)
                  20002ec4    00000004     (.common:trngCC26XXObjects)
                  20002ec8    00000002     (.common:buttonMsg$4)
                  20002eca    00000001     (.common:bInitAvailRatCh)
                  20002ecb    00000001     (.common:bPowerDownActive)
                  20002ecc    00000001     (.common:bPowerUpActive)
                  20002ecd    00000001     (.common:bRadioActive)
                  20002ece    00000001     (.common:bRestart)
                  20002ecf    00000001     (.common:bStart)
                  20002ed0    00000001     (.common:bYieldPwrDnCalled)
                  20002ed1    00000001     (.common:bYieldPwrDnCancel)
                  20002ed2    00000001     (.common:driverlib_release_0_46593)
                  20002ed3    00000001     (.common:gapRole_AdvChanMap)
                  20002ed4    00000001     (.common:gapRole_AdvDirectType)
                  20002ed5    00000001     (.common:gapRole_AdvEventType)
                  20002ed6    00000001     (.common:gapRole_AdvFilterPolicy)
                  20002ed7    00000001     (.common:gapRole_profileRole)
                  20002ed8    00000001     (.common:gapRole_state)
                  20002ed9    00000001     (.common:linkDBNumConns)
                  20002eda    00000001     (.common:nActiveClients)
                  20002edb    00000001     (.common:nClients)
                  20002edc    00000001     (.common:selfEntity)
                  20002edd    00000001     (.common:selfEntity)

.vtable    0    20002ede    00000000     UNINITIALIZED

.vtable_ram 
*          0    20002ede    00000000     UNINITIALIZED

vtable_ram 
*          0    20002ede    00000000     UNINITIALIZED

.sysmem    0    20002ede    00000000     UNINITIALIZED

.nonretenvar 
*          0    20002ede    00000000     UNINITIALIZED

.stack     0    20003f48    00000400     UNINITIALIZED
                  20003f48    00000400     --HOLE--


LINKER GENERATED COPY TABLES

__TI_cinit_table @ 0001fba0 records: 16, size/record: 8, table size: 128
	.data: load addr=0001f410, load size=00000641 bytes, run addr=20000520, run size=000008f4 bytes, compression=rle
	.data:ti_sysbios_family_arm_m3_Hwi_Module__state__V: load addr=0001fa58, load size=0000002d bytes, run addr=20000144, run size=00000034 bytes, compression=rle
	.data:ti_sysbios_knl_Task_Module__state__V: load addr=0001fa88, load size=0000002c bytes, run addr=20000100, run size=00000044 bytes, compression=rle
	.data:ti_sysbios_knl_Clock_Module__state__V: load addr=0001fab8, load size=00000021 bytes, run addr=20000178, run size=0000002c bytes, compression=rle
	.data:ti_sysbios_BIOS_Module__state__V: load addr=0001fae0, load size=0000001f bytes, run addr=200001a4, run size=00000024 bytes, compression=rle
	.data:ti_sysbios_knl_Swi_Module__state__V: load addr=0001fb00, load size=00000011 bytes, run addr=200001c8, run size=0000001c bytes, compression=rle
	.data:ti_sysbios_family_arm_cc26xx_Timer_Module__state__V: load addr=0001fb18, load size=0000000d bytes, run addr=200001e4, run size=00000008 bytes, compression=rle
	.data:xdc_runtime_Memory_Module__state__V: load addr=0001fb38, load size=0000000a bytes, run addr=20000200, run size=00000004 bytes, compression=rle
	.data:ti_sysbios_family_arm_cc26xx_TimestampProvider_Module__state__V: load addr=0001fb48, load size=00000009 bytes, run addr=200001ec, run size=00000004 bytes, compression=rle
	.data:xdc_runtime_Startup_Module__state__V: load addr=0001fb58, load size=00000009 bytes, run addr=200001f0, run size=00000008 bytes, compression=rle
	.data:xdc_runtime_System_Module__state__V: load addr=0001fb68, load size=00000009 bytes, run addr=200001f8, run size=00000008 bytes, compression=rle
	.TI.bound:dmaSpi0RxControlTableEntry: load addr=0001fb78, load size=00000008 bytes, run addr=20000430, run size=00000010 bytes, compression=zero_init
	.TI.bound:dmaSpi0TxControlTableEntry: load addr=0001fb80, load size=00000008 bytes, run addr=20000440, run size=00000010 bytes, compression=zero_init
	.TI.bound:dmaSpi1RxControlTableEntry: load addr=0001fb88, load size=00000008 bytes, run addr=20000500, run size=00000010 bytes, compression=zero_init
	.TI.bound:dmaSpi1TxControlTableEntry: load addr=0001fb90, load size=00000008 bytes, run addr=20000510, run size=00000010 bytes, compression=zero_init
	.bss: load addr=0001fb98, load size=00000008 bytes, run addr=20000e18, run size=000020c6 bytes, compression=zero_init


LINKER GENERATED HANDLER TABLE

__TI_handler_table @ 0001fb28 records: 3, size/record: 4, table size: 12
	index: 0, handler: __TI_decompress_rle24
	index: 1, handler: __TI_decompress_none
	index: 2, handler: __TI_zero_init


FAR CALL TRAMPOLINES

callee name               trampoline name
   callee addr  tramp addr   call addr  call info
--------------  -----------  ---------  ----------------
ti_sysbios_hal_Hwi_create  $Tramp$TT$L$PI$$ti_sysbios_hal_Hwi_create
   1001ab79     0000a018     0000a000   icall.obj (.text:ICall_primRegisterISR)
                             0000a040   icall.obj (.text:ICall_primRegisterISR_Ext)
ti_sysbios_BIOS_start__E  $Tramp$TT$L$PI$$ti_sysbios_BIOS_start__E
   1001c055     0000a884     0000a872   main.obj (.text:main)
ti_sysbios_BIOS_setThreadType__E  $Tramp$TT$L$PI$$ti_sysbios_BIOS_setThreadType__E
   1001c045     0000a8ec     0000a8c8   app_ble_uartlog_pem3.oem3 (.text:ti_sysbios_BIOS_atExitFunc__I)
                             0000bbd0   app_ble_uartlog_pem3.oem3 (.text:ti_sysbios_BIOS_exitFunc__I)
xdc_runtime_System_atexit__E  $Tramp$TT$L$PI$$xdc_runtime_System_atexit__E
   1001c681     0000a924     0000a904   app_ble_uartlog_pem3.oem3 (.text:ti_sysbios_BIOS_startFunc__I)
ti_sysbios_family_arm_cc26xx_Timer_startup__E  $Tramp$TT$L$PI$$ti_sysbios_family_arm_cc26xx_Timer_startup__E
   1001b795     0000a92c     0000a90c   app_ble_uartlog_pem3.oem3 (.text:ti_sysbios_BIOS_startFunc__I)
ti_sysbios_hal_Hwi_HwiProxy_startup__E  $Tramp$TT$L$PI$$ti_sysbios_hal_Hwi_HwiProxy_startup__E
   1001c28d     0000a934     0000a910   app_ble_uartlog_pem3.oem3 (.text:ti_sysbios_BIOS_startFunc__I)
ti_sysbios_knl_Swi_startup__E  $Tramp$TT$L$PI$$ti_sysbios_knl_Swi_startup__E
   1001c23d     0000a93c     0000a914   app_ble_uartlog_pem3.oem3 (.text:ti_sysbios_BIOS_startFunc__I)
ti_sysbios_knl_Task_startup__E  $Tramp$TT$L$PI$$ti_sysbios_knl_Task_startup__E
   1001c309     0000a944     0000a918   app_ble_uartlog_pem3.oem3 (.text:ti_sysbios_BIOS_startFunc__I)
xdc_runtime_Core_createObject__I  $Tramp$TT$L$PI$$xdc_runtime_Core_createObject__I
   1001c405     0000a9dc     0000a9c0   app_ble_uartlog_pem3.oem3 (.text:xdc_runtime_LoggerCallback_Object__create__S)
ti_sysbios_BIOS_RtsGateProxy_enter__E  $Tramp$TT$L$PI$$ti_sysbios_BIOS_RtsGateProxy_enter__E
   1001c249     0000b5b8     0000b59e   app_ble_uartlog_pem3.oem3 (.text:ti_sysbios_BIOS_rtsLock__I)
ti_sysbios_BIOS_RtsGateProxy_leave__E  $Tramp$TT$L$PI$$ti_sysbios_BIOS_RtsGateProxy_leave__E
   1001c24d     0000bb78     0000bb6e   app_ble_uartlog_pem3.oem3 (.text:ti_sysbios_BIOS_rtsUnlock__I)
ti_sysbios_knl_Clock_logTick__E  $Tramp$TT$L$PI$$ti_sysbios_knl_Clock_logTick__E
   1001be67     0000bcf4     0000bce2   app_ble_uartlog_pem3.oem3 (.text:ti_sysbios_knl_Clock_doTick__I)
xdc_runtime_Startup_startMods__I  $Tramp$TT$L$PI$$xdc_runtime_Startup_startMods__I
   1001c30d     0000bd44     0000bd3c   app_ble_uartlog_pem3.oem3 (.text:xdc_runtime_Startup_exec__I)
ti_sysbios_family_arm_m3_Hwi_enableFxn__E  $Tramp$TT$L$PI$$ti_sysbios_family_arm_m3_Hwi_enableFxn__E
   1001c155     0000be94     0000be88   icall.obj (.text:ICall_primEnableMInt)
ti_sysbios_knl_Task_enable__E  $Tramp$TT$L$PI$$ti_sysbios_knl_Task_enable__E
   1001c243     0000be9c     0000be8c   icall.obj (.text:ICall_primEnableMInt)
ti_sysbios_hal_Hwi_HwiProxy_disableInterrupt__E  $Tramp$TT$L$PI$$ti_sysbios_hal_Hwi_HwiProxy_disableInterrupt__E
   1001c281     0000bfa4     0000bf9c   icall.obj (.text:ICall_primDisableInt)
ti_sysbios_hal_Hwi_HwiProxy_enableInterrupt__E  $Tramp$TT$L$PI$$ti_sysbios_hal_Hwi_HwiProxy_enableInterrupt__E
   1001c285     0000bfb8     0000bfb0   icall.obj (.text:ICall_primEnableInt)
xdc_runtime_Core_assignParams__I  $Tramp$TT$L$PI$$xdc_runtime_Core_assignParams__I
   1001c5f1     0000c0a4     0000c09c   rom_sysbios.aem3 : rom_sysbios_config.obj (.text:ti_sysbios_hal_Hwi_Params__init__S)
ti_sysbios_family_arm_m3_Hwi_disableInterrupt__E  $Tramp$TT$L$PI$$ti_sysbios_family_arm_m3_Hwi_disableInterrupt__E
   1001b299     0000c210     0000c20c   scif_framework.obj (.text:osalDisableCtrlReadyInt)
                             0000c21a   scif_framework.obj (.text:osalDisableTaskAlertInt)
ti_sysbios_knl_Task_construct  $Tramp$TT$L$PI$$ti_sysbios_knl_Task_construct
   1001b125     0000c268     00009a20   peripheral.obj (.text:GAPRole_createTask)
                             00009c00   project_zero.obj (.text:ProjectZero_createTask)
xdc_runtime_System_exit__E  $Tramp$TT$L$PI$$xdc_runtime_System_exit__E
   1001c7d1     0000c270     00009650   boot.aem3 : boot.oem3 (.text)
                             0000bbd6   app_ble_uartlog_pem3.oem3 (.text:ti_sysbios_BIOS_exitFunc__I)
ti_sysbios_knl_Queue_enqueue__E  $Tramp$TT$L$PI$$ti_sysbios_knl_Queue_enqueue__E
   1001c1b5     0000c278     00008e60   project_zero.obj (.text:user_enqueueCharDataMsg)
                             00009962   project_zero.obj (.text:user_enqueueRawAppMsg)
ti_sysbios_knl_Semaphore_destruct  $Tramp$TT$L$PI$$ti_sysbios_knl_Semaphore_destruct
   1001c2e1     0000c280     000089a2   drivers_cc26xxware.aem3 : SPICC26XXDMA.oem3 (.text:SPICC26XXDMA_close)
ti_sysbios_knl_Swi_destruct  $Tramp$TT$L$PI$$ti_sysbios_knl_Swi_destruct
   1001c2e9     0000c288     00008990   drivers_cc26xxware.aem3 : SPICC26XXDMA.oem3 (.text:SPICC26XXDMA_close)
ti_sysbios_family_arm_m3_Hwi_destruct  $Tramp$TT$L$PI$$ti_sysbios_family_arm_m3_Hwi_destruct
   1001c261     0000c290     00008988   drivers_cc26xxware.aem3 : SPICC26XXDMA.oem3 (.text:SPICC26XXDMA_close)
                             0000a078                           : UDMACC26XX.oem3 (.text:UDMACC26XX_close)
ti_sysbios_BIOS_getCpuFreq__E  $Tramp$TT$L$PI$$ti_sysbios_BIOS_getCpuFreq__E
   1001bff9     0000c298     0000858e   drivers_cc26xxware.aem3 : SPICC26XXDMA.oem3 (.text:SPICC26XXDMA_initHw)
ti_sysbios_knl_Semaphore_create  $Tramp$TT$L$PI$$ti_sysbios_knl_Semaphore_create
   1001b5ad     0000c2a0     00007872   icall.obj (.text:ICall_newTask)
ti_sysbios_knl_Queue_dequeue__E  $Tramp$TT$L$PI$$ti_sysbios_knl_Queue_dequeue__E
   1001c1a9     0000c2a8     000072ba   project_zero.obj (.text:ProjectZero_taskFxn)
ti_sysbios_knl_Queue_empty__E  $Tramp$TT$L$PI$$ti_sysbios_knl_Queue_empty__E
   1001c113     0000c2b0     000072b0   project_zero.obj (.text:ProjectZero_taskFxn)
ti_sysbios_knl_Task_create  $Tramp$TT$L$PI$$ti_sysbios_knl_Task_create
   1001ae19     0000c2b8     000071fa   icall.obj (.text:ICall_createRemoteTasks)
                             000092fa   icall.obj (.text:ICall_primCreateTask)
ti_sysbios_knl_Task_Params__init__S  $Tramp$TT$L$PI$$ti_sysbios_knl_Task_Params__init__S
   1001c1d9     0000c2c0     000071d8   icall.obj (.text:ICall_createRemoteTasks)
                             000092e4   icall.obj (.text:ICall_primCreateTask)
                             00009a06   peripheral.obj (.text:GAPRole_createTask)
                             00009be6   project_zero.obj (.text:ProjectZero_createTask)
ti_sysbios_knl_Clock_scheduleNextTick__E  $Tramp$TT$L$PI$$ti_sysbios_knl_Clock_scheduleNextTick__E
   1001bebd     0000c2c8     00006fde   rom_sysbios.aem3 : rom_sysbios.obj (.text:ti_sysbios_knl_Clock_workFuncDynamic__E)
ti_sysbios_knl_Clock_walkQueueDynamic__E  $Tramp$TT$L$PI$$ti_sysbios_knl_Clock_walkQueueDynamic__E
   1001a80d     0000c2d0     00006fa6   rom_sysbios.aem3 : rom_sysbios.obj (.text:ti_sysbios_knl_Clock_workFuncDynamic__E)
                             00006fc2                    : rom_sysbios.obj (.text:ti_sysbios_knl_Clock_workFuncDynamic__E)
ti_sysbios_knl_Clock_TimerProxy_getCurrentTick__E  $Tramp$TT$L$PI$$ti_sysbios_knl_Clock_TimerProxy_getCurrentTick__E
   1001c095     0000c2d8     00006f74   rom_sysbios.aem3 : rom_sysbios.obj (.text:ti_sysbios_knl_Clock_workFuncDynamic__E)
                             0000ac36                    : rom_sysbios.obj (.text:ti_sysbios_knl_Clock_getTicksUntilInterrupt__E)
ti_sysbios_knl_Clock_create  $Tramp$TT$L$PI$$ti_sysbios_knl_Clock_create
   1001b3ed     0000c2e0     00006d2c   icall.obj (.text:ICall_primSetTimer)
ti_sysbios_knl_Swi_post__E  $Tramp$TT$L$PI$$ti_sysbios_knl_Swi_post__E
   1001b321     0000c2e8     00006b6a   drivers_cc26xxware.aem3 : SPICC26XXDMA.oem3 (.text:SPICC26XXDMA_hwiFxn)
                             0000bb94   rom_sysbios.aem3 : rom_sysbios.obj (.text:ti_sysbios_knl_Swi_or__E)
                             0000bcea   app_ble_uartlog_pem3.oem3 (.text:ti_sysbios_knl_Clock_doTick__I)
ti_sysbios_family_arm_m3_Hwi_enableInterrupt__E  $Tramp$TT$L$PI$$ti_sysbios_family_arm_m3_Hwi_enableInterrupt__E
   1001b2dd     0000c2f0     00005fc0   rf_singleMode_cc26xxware.aem3 : RFCC26XX_singleMode.oem3 (.text:fsmPowerUpState)
                             0000c220   scif_framework.obj (.text:osalEnableCtrlReadyInt)
                             0000c226   scif_framework.obj (.text:osalEnableTaskAlertInt)
ti_sysbios_knl_Semaphore_post__E  $Tramp$TT$L$PI$$ti_sysbios_knl_Semaphore_post__E
   1001ac41     0000c2f8     00005b80   icall.obj (.text:ICall_primWaitMatch)
                             00007072   drivers_cc26xxware.aem3 : PINCC26XX.oem3 (.text:PIN_open)
                             00007daa   rf_singleMode_cc26xxware.aem3 : RFCC26XX_singleMode.oem3 (.text:fsmPowerDownState)
                             00007eca   icall.obj (.text:ICall_primSend)
                             0000807c   drivers_cc26xxware.aem3 : PINCC26XX.oem3 (.text:PIN_add)
                             00008e68   project_zero.obj (.text:user_enqueueCharDataMsg)
                             00009144   rf_singleMode_cc26xxware.aem3 : RFCC26XX_singleMode.oem3 (.text:syncCb)
                             0000996a   project_zero.obj (.text:user_enqueueRawAppMsg)
                             0000b052   scif_framework.obj (.text:osalIndicateCtrlReady)
                             0000badc   peripheral.obj (.text:gapRole_setEvent)
                             0000bfd0   icall.obj (.text:ICall_primSignal)
                             0000c16c   drivers_cc26xxware.aem3 : SPICC26XXDMA.oem3 (.text:SPICC26XXDMA_transferCallback)
ti_sysbios_knl_Semaphore_pend__E  $Tramp$TT$L$PI$$ti_sysbios_knl_Semaphore_pend__E
   1001a0cd     0000c300     00005b0c   icall.obj (.text:ICall_primWaitMatch)
                             00006570   drivers_cc26xxware.aem3 : SPICC26XXDMA.oem3 (.text:SPICC26XXDMA_transfer)
                             00006586                           : SPICC26XXDMA.oem3 (.text:SPICC26XXDMA_transfer)
                             0000700a                           : PINCC26XX.oem3 (.text:PIN_open)
                             00007914   rf_singleMode_cc26xxware.aem3 : RFCC26XX_singleMode.oem3 (.text:RF_pendCmd)
                             00007998   scif_framework.obj (.text:osalWaitOnCtrlReady)
                             00008050   drivers_cc26xxware.aem3 : PINCC26XX.oem3 (.text:PIN_add)
                             000086d2   icall.obj (.text:ICall_primWait)
ti_sysbios_knl_Clock_getTicks__E  $Tramp$TT$L$PI$$ti_sysbios_knl_Clock_getTicks__E
   1001b6d9     0000c308     00005afa   icall.obj (.text:ICall_primWaitMatch)
                             00005b62   icall.obj (.text:ICall_primWaitMatch)
                             0000beb6   icall.obj (.text:ICall_primGetTicks)
ti_sysbios_knl_Task_self__E  $Tramp$TT$L$PI$$ti_sysbios_knl_Task_self__E
   1001c1e5     0000c310     00005aa6   icall.obj (.text:ICall_primWaitMatch)
                             00006ece   icall.obj (.text:ICall_primEnroll)
                             000076b6   icall.obj (.text:ICall_primRegisterApp)
                             00007a54   icall.obj (.text:ICall_primThreadServes)
                             000083e0   icall.obj (.text:ICall_primGetEntityId)
                             00008688   icall.obj (.text:ICall_primWait)
                             0000a270   icall.obj (.text:ICall_primFetchMsg)
xdc_runtime_Text_ropeText__E  $Tramp$TT$L$PI$$xdc_runtime_Text_ropeText__E
   1001c7e9     0000c318     000044b6   uart_logs.obj (.text:uartLog_doPrint)
                             00009298   rom_sysbios.aem3 : rom_sysbios.obj (.text:xdc_runtime_Text_visitRope2__I)
                             000092a6                    : rom_sysbios.obj (.text:xdc_runtime_Text_visitRope2__I)
xdc_runtime_System_abortSpin__E  $Tramp$TT$L$PI$$xdc_runtime_System_abortSpin__E
   1001c899     0000c320     0000439a   drivers_cc26xxware.aem3 : PowerCC26XX_calibrateRCOSC.oem3 (.text:PowerCC26XX_doCalibrate)
                             0000852a                           : PowerCC26XX_calibrateRCOSC.oem3 (.text:PowerCC26XX_RCOSC_clockFunc)
ti_sysbios_knl_Swi_construct  $Tramp$TT$L$PI$$ti_sysbios_knl_Swi_construct
   1001b085     0000c328     00003d40   drivers_cc26xxware.aem3 : PINCC26XX.oem3 (.text:PIN_init)
                             00004bfe                           : SPICC26XXDMA.oem3 (.text:SPICC26XXDMA_open)
                             00005052   rf_singleMode_cc26xxware.aem3 : RFCC26XX_singleMode.oem3 (.text:rf_init)
                             00005092                                 : RFCC26XX_singleMode.oem3 (.text:rf_init)
ti_sysbios_knl_Swi_Params__init__S  $Tramp$TT$L$PI$$ti_sysbios_knl_Swi_Params__init__S
   1001c1cd     0000c330     00003d2e   drivers_cc26xxware.aem3 : PINCC26XX.oem3 (.text:PIN_init)
                             00004bea                           : SPICC26XXDMA.oem3 (.text:SPICC26XXDMA_open)
                             00005040   rf_singleMode_cc26xxware.aem3 : RFCC26XX_singleMode.oem3 (.text:rf_init)
                             00005082                                 : RFCC26XX_singleMode.oem3 (.text:rf_init)
ti_sysbios_family_arm_m3_Hwi_construct  $Tramp$TT$L$PI$$ti_sysbios_family_arm_m3_Hwi_construct
   1001af29     0000c338     00003d22   drivers_cc26xxware.aem3 : PINCC26XX.oem3 (.text:PIN_init)
                             00004bde                           : SPICC26XXDMA.oem3 (.text:SPICC26XXDMA_open)
                             00005076   rf_singleMode_cc26xxware.aem3 : RFCC26XX_singleMode.oem3 (.text:rf_init)
                             000050b6                                 : RFCC26XX_singleMode.oem3 (.text:rf_init)
                             000080ec   drivers_cc26xxware.aem3 : PowerCC26XX.oem3 (.text:PowerCC26XX_calibrate)
                             0000882e                           : UDMACC26XX.oem3 (.text:UDMACC26XX_open)
                             0000a462   scif_framework.obj (.text:osalRegisterCtrlReadyInt)
                             0000a496   scif_framework.obj (.text:osalRegisterTaskAlertInt)
ti_sysbios_family_arm_m3_Hwi_Params__init__S  $Tramp$TT$L$PI$$ti_sysbios_family_arm_m3_Hwi_Params__init__S
   1001c13d     0000c340     00003d0c   drivers_cc26xxware.aem3 : PINCC26XX.oem3 (.text:PIN_init)
                             00004bc6                           : SPICC26XXDMA.oem3 (.text:SPICC26XXDMA_open)
                             0000505e   rf_singleMode_cc26xxware.aem3 : RFCC26XX_singleMode.oem3 (.text:rf_init)
                             0000509e                                 : RFCC26XX_singleMode.oem3 (.text:rf_init)
                             00008818   drivers_cc26xxware.aem3 : UDMACC26XX.oem3 (.text:UDMACC26XX_open)
                             0000a44e   scif_framework.obj (.text:osalRegisterCtrlReadyInt)
                             0000a482   scif_framework.obj (.text:osalRegisterTaskAlertInt)
ti_sysbios_knl_Semaphore_construct  $Tramp$TT$L$PI$$ti_sysbios_knl_Semaphore_construct
   1001b709     0000c348     00003caa   drivers_cc26xxware.aem3 : PINCC26XX.oem3 (.text:PIN_init)
                             00004c1e                           : SPICC26XXDMA.oem3 (.text:SPICC26XXDMA_open)
                             0000649c   rf_singleMode_cc26xxware.aem3 : RFCC26XX_singleMode.oem3 (.text:RF_open)
                             00009f98   scif_framework.obj (.text:scifOsalInit)
ti_sysbios_knl_Semaphore_Params__init__S  $Tramp$TT$L$PI$$ti_sysbios_knl_Semaphore_Params__init__S
   1001c1c1     0000c350     00003c98   drivers_cc26xxware.aem3 : PINCC26XX.oem3 (.text:PIN_init)
                             00004c0e                           : SPICC26XXDMA.oem3 (.text:SPICC26XXDMA_open)
                             0000648c   rf_singleMode_cc26xxware.aem3 : RFCC26XX_singleMode.oem3 (.text:RF_open)
                             00009f8a   scif_framework.obj (.text:scifOsalInit)
ti_sysbios_knl_Task_restore__E  $Tramp$TT$L$PI$$ti_sysbios_knl_Task_restore__E
   1001ba49     0000c358     0000322c   drivers_cc26xxware.aem3 : PowerCC26XX.oem3 (.text:Power_sleep)
                             00007224   icall.obj (.text:ICall_createRemoteTasks)
                             0000bbfe   icall.obj (.text:ICall_leaveCSImpl)
ti_sysbios_knl_Swi_restore__E  $Tramp$TT$L$PI$$ti_sysbios_knl_Swi_restore__E
   1001b5e1     0000c360     00003222   drivers_cc26xxware.aem3 : PowerCC26XX.oem3 (.text:Power_sleep)
                             00003ba0   rf_singleMode_cc26xxware.aem3 : RFCC26XX_singleMode.oem3 (.text:abortCmd)
                             000078e2                                 : RFCC26XX_singleMode.oem3 (.text:RF_pendCmd)
                             00007908                                 : RFCC26XX_singleMode.oem3 (.text:RF_pendCmd)
                             00007926                                 : RFCC26XX_singleMode.oem3 (.text:RF_pendCmd)
ti_sysbios_knl_Swi_disable__E  $Tramp$TT$L$PI$$ti_sysbios_knl_Swi_disable__E
   1001c0d5     0000c368     0000307e   drivers_cc26xxware.aem3 : PowerCC26XX.oem3 (.text:Power_sleep)
                             00003b5e   rf_singleMode_cc26xxware.aem3 : RFCC26XX_singleMode.oem3 (.text:abortCmd)
                             000078cc                                 : RFCC26XX_singleMode.oem3 (.text:RF_pendCmd)
                             0000a8be   app_ble_uartlog_pem3.oem3 (.text:ti_sysbios_BIOS_atExitFunc__I)
ti_sysbios_knl_Task_disable__E  $Tramp$TT$L$PI$$ti_sysbios_knl_Task_disable__E
   1001c0f5     0000c370     00003066   drivers_cc26xxware.aem3 : PowerCC26XX.oem3 (.text:Power_sleep)
                             000071bc   icall.obj (.text:ICall_createRemoteTasks)
                             0000a8c2   app_ble_uartlog_pem3.oem3 (.text:ti_sysbios_BIOS_atExitFunc__I)
                             0000b81e   icall.obj (.text:ICall_enterCSImpl)
                             0000be7a   icall.obj (.text:ICall_primDisableMInt)
ti_sysbios_knl_Clock_construct  $Tramp$TT$L$PI$$ti_sysbios_knl_Clock_construct
   1001b579     0000c378     00002426   project_zero.obj (.text:ProjectZero_init)
                             0000243e   project_zero.obj (.text:ProjectZero_init)
                             000050c2   rf_singleMode_cc26xxware.aem3 : RFCC26XX_singleMode.oem3 (.text:rf_init)
                             00005192   drivers_cc26xxware.aem3 : PowerCC26XX.oem3 (.text:Power_init)
                             000051a0                           : PowerCC26XX.oem3 (.text:Power_init)
                             000051ae                           : PowerCC26XX.oem3 (.text:Power_init)
                             000064b8   rf_singleMode_cc26xxware.aem3 : RFCC26XX_singleMode.oem3 (.text:RF_open)
                             000080dc   drivers_cc26xxware.aem3 : PowerCC26XX.oem3 (.text:PowerCC26XX_calibrate)
                             00008bc0   util.obj (.text:Util_constructClock)
ti_sysbios_knl_Clock_Params__init__S  $Tramp$TT$L$PI$$ti_sysbios_knl_Clock_Params__init__S
   1001c185     0000c380     00002402   project_zero.obj (.text:ProjectZero_init)
                             0000517a   drivers_cc26xxware.aem3 : PowerCC26XX.oem3 (.text:Power_init)
                             000064a8   rf_singleMode_cc26xxware.aem3 : RFCC26XX_singleMode.oem3 (.text:RF_open)
                             00006d18   icall.obj (.text:ICall_primSetTimer)
                             000080c4   drivers_cc26xxware.aem3 : PowerCC26XX.oem3 (.text:PowerCC26XX_calibrate)
                             00008ba0   util.obj (.text:Util_constructClock)
ti_sysbios_knl_Task_exit__E  $Tramp$TT$L$PI$$ti_sysbios_knl_Task_exit__E
   1001b429     0000c388     000023b2   project_zero.obj (.text:ProjectZero_init)
                             000023c4   project_zero.obj (.text:ProjectZero_init)
                             000023d6   project_zero.obj (.text:ProjectZero_init)
                             000023e8   project_zero.obj (.text:ProjectZero_init)
                             000023f6   project_zero.obj (.text:ProjectZero_init)
                             00008354   project_zero.obj (.text:bspSpiOpen)
ti_sysbios_knl_Queue_construct  $Tramp$TT$L$PI$$ti_sysbios_knl_Queue_construct
   1001b8f5     0000c390     0000239c   project_zero.obj (.text:ProjectZero_init)
ti_sysbios_knl_Clock_start__E  $Tramp$TT$L$PI$$ti_sysbios_knl_Clock_start__E
   1001bfe3     0000c398     0000187c   rf_singleMode_cc26xxware.aem3 : RFCC26XX_singleMode.oem3 (.text:fsmActiveState)
                             00004080                                 : RFCC26XX_singleMode.oem3 (.text:RF_postCmd)
                             00004418   drivers_cc26xxware.aem3 : PowerCC26XX_calibrateRCOSC.oem3 (.text:PowerCC26XX_doCalibrate)
                             0000522c                           : PowerCC26XX.oem3 (.text:Power_init)
                             000065d8   power_cc26xx_tirtos.aem3 : PowerCC26XX_tirtos.oem3 (.text:PowerCC26XX_standbyPolicy)
                             00006d78   icall.obj (.text:ICall_primSetTimer)
                             00007326   drivers_cc26xxware.aem3 : PowerCC26XX.oem3 (.text:switchXOSCHFclockFunc)
                             00007af4                           : PowerCC26XX.oem3 (.text:disableLFClockQualifiers)
                             00008484   rf_singleMode_cc26xxware.aem3 : RFCC26XX_singleMode.oem3 (.text:decActiveClientCnt)
                             00008bfe                                 : RFCC26XX_singleMode.oem3 (.text:fsmXOSCState)
                             00008d12   drivers_cc26xxware.aem3 : PowerCC26XX.oem3 (.text:configureXOSCHF)
                             0000a402   util.obj (.text:Util_restartClock)
                             0000a428   project_zero.obj (.text:buttonCallbackFxn)
                             0000a430   project_zero.obj (.text:buttonCallbackFxn)
                             0000b5d2   rom_sysbios.aem3 : rom_sysbios.obj (.text:ti_sysbios_knl_Clock_stop__E)
ti_sysbios_knl_Clock_setTimeout__E  $Tramp$TT$L$PI$$ti_sysbios_knl_Clock_setTimeout__E
   1001c2c1     0000c3a0     00001874   rf_singleMode_cc26xxware.aem3 : RFCC26XX_singleMode.oem3 (.text:fsmActiveState)
                             0000407a                                 : RFCC26XX_singleMode.oem3 (.text:RF_postCmd)
                             00005226   drivers_cc26xxware.aem3 : PowerCC26XX.oem3 (.text:Power_init)
                             000065d2   power_cc26xx_tirtos.aem3 : PowerCC26XX_tirtos.oem3 (.text:PowerCC26XX_standbyPolicy)
                             00006d72   icall.obj (.text:ICall_primSetTimer)
                             00007320   drivers_cc26xxware.aem3 : PowerCC26XX.oem3 (.text:switchXOSCHFclockFunc)
                             00007aee                           : PowerCC26XX.oem3 (.text:disableLFClockQualifiers)
                             0000847e   rf_singleMode_cc26xxware.aem3 : RFCC26XX_singleMode.oem3 (.text:decActiveClientCnt)
                             00008bf8                                 : RFCC26XX_singleMode.oem3 (.text:fsmXOSCState)
                             00008d0c   drivers_cc26xxware.aem3 : PowerCC26XX.oem3 (.text:configureXOSCHF)
                             0000a3fc   util.obj (.text:Util_restartClock)
ti_sysbios_family_arm_m3_Hwi_restoreFxn__E  $Tramp$TT$L$PI$$ti_sysbios_family_arm_m3_Hwi_restoreFxn__E
   1001c219     0000c3a8     0000183a   rf_singleMode_cc26xxware.aem3 : RFCC26XX_singleMode.oem3 (.text:fsmActiveState)
                             000018b2                                 : RFCC26XX_singleMode.oem3 (.text:fsmActiveState)
                             00003a88                                 : RFCC26XX_singleMode.oem3 (.text:abortCmd)
                             00003ace                                 : RFCC26XX_singleMode.oem3 (.text:abortCmd)
                             00003ae8                                 : RFCC26XX_singleMode.oem3 (.text:abortCmd)
                             00003b72                                 : RFCC26XX_singleMode.oem3 (.text:abortCmd)
                             00003baa                                 : RFCC26XX_singleMode.oem3 (.text:abortCmd)
                             00004020                                 : RFCC26XX_singleMode.oem3 (.text:RF_postCmd)
                             0000405e                                 : RFCC26XX_singleMode.oem3 (.text:RF_postCmd)
                             000040c6                                 : RFCC26XX_singleMode.oem3 (.text:RF_postCmd)
                             00004b48   drivers_cc26xxware.aem3 : SPICC26XXDMA.oem3 (.text:SPICC26XXDMA_open)
                             00004b58                           : SPICC26XXDMA.oem3 (.text:SPICC26XXDMA_open)
                             00004bb6                           : SPICC26XXDMA.oem3 (.text:SPICC26XXDMA_open)
                             00005ba6                           : SPICC26XXDMA.oem3 (.text:SPICC26XXDMA_transferCancel)
                             00005c16                           : SPICC26XXDMA.oem3 (.text:SPICC26XXDMA_transferCancel)
                             00005c6a                           : SPICC26XXDMA.oem3 (.text:SPICC26XXDMA_transferCancel)
                             00005eda   scif_framework.obj (.text:scifInit)
                             000060b6   drivers_cc26xxware.aem3 : PowerCC26XX.oem3 (.text:Power_releaseDependency)
                             0000625a                           : PowerCC26XX.oem3 (.text:Power_setDependency)
                             00006444   rf_singleMode_cc26xxware.aem3 : RFCC26XX_singleMode.oem3 (.text:RF_open)
                             00006452                                 : RFCC26XX_singleMode.oem3 (.text:RF_open)
                             000064ee   drivers_cc26xxware.aem3 : SPICC26XXDMA.oem3 (.text:SPICC26XXDMA_transfer)
                             00006500                           : SPICC26XXDMA.oem3 (.text:SPICC26XXDMA_transfer)
                             00006542                           : SPICC26XXDMA.oem3 (.text:SPICC26XXDMA_transfer)
                             000066f0                           : PINCC26XX.oem3 (.text:PINCC26XX_setIoCfg)
                             000069ac   uart_logs.obj (.text:uartLog_outputFxn)
                             00006a0e   rf_singleMode_cc26xxware.aem3 : RFCC26XX_singleMode.oem3 (.text:swiFxnHw)
                             00006a28                                 : RFCC26XX_singleMode.oem3 (.text:swiFxnHw)
                             0000734e   drivers_cc26xxware.aem3 : PowerCC26XX.oem3 (.text:switchXOSCHFclockFunc)
                             000073c8   uart_logs.obj (.text:uartLog_flush)
                             0000753e   TRNGCC26XX.obj (.text:TRNGCC26XX_getNumber)
                             00007580   TRNGCC26XX.obj (.text:TRNGCC26XX_getNumber)
                             00007956   scif_framework.obj (.text:osalWaitOnCtrlReady)
                             00007962   scif_framework.obj (.text:osalWaitOnCtrlReady)
                             00007972   scif_framework.obj (.text:osalWaitOnCtrlReady)
                             0000798a   scif_framework.obj (.text:osalWaitOnCtrlReady)
                             00008250   rf_singleMode_cc26xxware.aem3 : RFCC26XX_singleMode.oem3 (.text:RF_getCurrentTime)
                             00008258                                 : RFCC26XX_singleMode.oem3 (.text:RF_getCurrentTime)
                             000082f6                                 : RFCC26XX_singleMode.oem3 (.text:RF_getInfo)
                             0000848a                                 : RFCC26XX_singleMode.oem3 (.text:decActiveClientCnt)
                             0000883e   drivers_cc26xxware.aem3 : UDMACC26XX.oem3 (.text:UDMACC26XX_open)
                             000089b8                           : SPICC26XXDMA.oem3 (.text:SPICC26XXDMA_close)
                             00008b46                           : PowerCC26XX_calibrateRCOSC.oem3 (.text:PowerCC26XX_initiateCalibration)
                             00008e12   rf_singleMode_cc26xxware.aem3 : RFCC26XX_singleMode.oem3 (.text:ratChanFree)
                             00008eb4   drivers_cc26xxware.aem3 : SPICC26XXDMA.oem3 (.text:SPICC26XXDMA_swiFxn)
                             0000949e   rf_singleMode_cc26xxware.aem3 : RFCC26XX_singleMode.oem3 (.text:RF_getRssi)
                             00009ce2                                 : RFCC26XX_singleMode.oem3 (.text:postDirImmCmd)
                             00009cf6                                 : RFCC26XX_singleMode.oem3 (.text:postDirImmCmd)
                             0000a086   drivers_cc26xxware.aem3 : UDMACC26XX.oem3 (.text:UDMACC26XX_close)
                             0000a360                           : PowerCC26XX.oem3 (.text:PowerCC26XX_isStableXOSC_HF)
                             0000a39c   rf_singleMode_cc26xxware.aem3 : RFCC26XX_singleMode.oem3 (.text:Q_push)
                             0000a728   drivers_cc26xxware.aem3 : PowerCC26XX.oem3 (.text:Power_releaseConstraint)
                             0000a758                           : PowerCC26XX.oem3 (.text:Power_setConstraint)
                             0000a8b2   scif.obj (.text:scifStartRtcTicksNow)
                             0000af4e   drivers_cc26xxware.aem3 : PowerCC26XX.oem3 (.text:PowerCC26XX_switchXOSC_HF)
                             0000afea   TRNGCC26XX.obj (.text:TRNGCC26XX_init)
                             0000b17c   drivers_cc26xxware.aem3 : List.oem3 (.text:List_put)
                             0000b28c   scif_framework.obj (.text:osalLockCtrlTaskNbl)
                             0000b298   scif_framework.obj (.text:osalLockCtrlTaskNbl)
                             0000b52c   drivers_cc26xxware.aem3 : PowerCC26XX.oem3 (.text:Power_unregisterNotify)
                             0000b54a   TRNGCC26XX.obj (.text:TRNGCC26XX_open)
                             0000ba80   rf_singleMode_cc26xxware.aem3 : RFCC26XX_singleMode.oem3 (.text:Q_pop)
                             0000bbf8   icall.obj (.text:ICall_leaveCSImpl)
ti_sysbios_family_arm_m3_Hwi_disableFxn__E  $Tramp$TT$L$PI$$ti_sysbios_family_arm_m3_Hwi_disableFxn__E
   1001c149     0000c3b0     00001814   rf_singleMode_cc26xxware.aem3 : RFCC26XX_singleMode.oem3 (.text:fsmActiveState)
                             0000189e                                 : RFCC26XX_singleMode.oem3 (.text:fsmActiveState)
                             00003a26                                 : RFCC26XX_singleMode.oem3 (.text:abortCmd)
                             00003f6c                                 : RFCC26XX_singleMode.oem3 (.text:RF_postCmd)
                             0000403c                                 : RFCC26XX_singleMode.oem3 (.text:RF_postCmd)
                             00004b3c   drivers_cc26xxware.aem3 : SPICC26XXDMA.oem3 (.text:SPICC26XXDMA_open)
                             00004bae                           : SPICC26XXDMA.oem3 (.text:SPICC26XXDMA_open)
                             00005b9a                           : SPICC26XXDMA.oem3 (.text:SPICC26XXDMA_transferCancel)
                             00005bf0                           : SPICC26XXDMA.oem3 (.text:SPICC26XXDMA_transferCancel)
                             00005ec0   scif_framework.obj (.text:scifInit)
                             00006002   drivers_cc26xxware.aem3 : PowerCC26XX.oem3 (.text:Power_releaseDependency)
                             000061aa                           : PowerCC26XX.oem3 (.text:Power_setDependency)
                             0000643a   rf_singleMode_cc26xxware.aem3 : RFCC26XX_singleMode.oem3 (.text:RF_open)
                             000064e4   drivers_cc26xxware.aem3 : SPICC26XXDMA.oem3 (.text:SPICC26XXDMA_transfer)
                             0000651e                           : SPICC26XXDMA.oem3 (.text:SPICC26XXDMA_transfer)
                             000066d2                           : PINCC26XX.oem3 (.text:PINCC26XX_setIoCfg)
                             00006924   uart_logs.obj (.text:uartLog_outputFxn)
                             000069ca   rf_singleMode_cc26xxware.aem3 : RFCC26XX_singleMode.oem3 (.text:swiFxnHw)
                             000072d8   drivers_cc26xxware.aem3 : PowerCC26XX.oem3 (.text:switchXOSCHFclockFunc)
                             00007386   uart_logs.obj (.text:uartLog_flush)
                             00007512   TRNGCC26XX.obj (.text:TRNGCC26XX_getNumber)
                             00007946   scif_framework.obj (.text:osalWaitOnCtrlReady)
                             00008242   rf_singleMode_cc26xxware.aem3 : RFCC26XX_singleMode.oem3 (.text:RF_getCurrentTime)
                             000082b0                                 : RFCC26XX_singleMode.oem3 (.text:RF_getInfo)
                             00008444                                 : RFCC26XX_singleMode.oem3 (.text:decActiveClientCnt)
                             00008804   drivers_cc26xxware.aem3 : UDMACC26XX.oem3 (.text:UDMACC26XX_open)
                             000089ae                           : SPICC26XXDMA.oem3 (.text:SPICC26XXDMA_close)
                             00008b32                           : PowerCC26XX_calibrateRCOSC.oem3 (.text:PowerCC26XX_initiateCalibration)
                             00008dd4   rf_singleMode_cc26xxware.aem3 : RFCC26XX_singleMode.oem3 (.text:ratChanFree)
                             00008e90   drivers_cc26xxware.aem3 : SPICC26XXDMA.oem3 (.text:SPICC26XXDMA_swiFxn)
                             0000948e   rf_singleMode_cc26xxware.aem3 : RFCC26XX_singleMode.oem3 (.text:RF_getRssi)
                             00009ccc                                 : RFCC26XX_singleMode.oem3 (.text:postDirImmCmd)
                             0000a05c   drivers_cc26xxware.aem3 : UDMACC26XX.oem3 (.text:UDMACC26XX_close)
                             0000a33e                           : PowerCC26XX.oem3 (.text:PowerCC26XX_isStableXOSC_HF)
                             0000a37e   rf_singleMode_cc26xxware.aem3 : RFCC26XX_singleMode.oem3 (.text:Q_push)
                             0000a386                                 : RFCC26XX_singleMode.oem3 (.text:Q_push)
                             0000a708   drivers_cc26xxware.aem3 : PowerCC26XX.oem3 (.text:Power_releaseConstraint)
                             0000a738                           : PowerCC26XX.oem3 (.text:Power_setConstraint)
                             0000a890   scif.obj (.text:scifStartRtcTicksNow)
                             0000af32   drivers_cc26xxware.aem3 : PowerCC26XX.oem3 (.text:PowerCC26XX_switchXOSC_HF)
                             0000afd2   TRNGCC26XX.obj (.text:TRNGCC26XX_init)
                             0000b282   scif_framework.obj (.text:osalLockCtrlTaskNbl)
                             0000b51c   drivers_cc26xxware.aem3 : PowerCC26XX.oem3 (.text:Power_unregisterNotify)
                             0000b53a   TRNGCC26XX.obj (.text:TRNGCC26XX_open)
                             0000b828   icall.obj (.text:ICall_enterCSImpl)
                             0000ba74   rf_singleMode_cc26xxware.aem3 : RFCC26XX_singleMode.oem3 (.text:Q_pop)
                             0000be7e   icall.obj (.text:ICall_primDisableMInt)
                             0000c23c   tirtosport.aem3 : HwiP_tirtos.oem3 (.text:HwiP_disable)

[61 trampolines]
[296 trampoline calls]


GLOBAL SYMBOLS: SORTED ALPHABETICALLY BY Name 

address   name                                                                      
-------   ----                                                                      
10014c00  A1_rw                                                                     
10019ffe  A2_rw                                                                     
10019ffc  A3_rw                                                                     
20004f2c  A4_rw                                                                     
20004f7c  ACCX                                                                      
20004f80  ACCY                                                                      
20004f84  ACCZ                                                                      
00006709  ADC_Data_Disp02                                                           
0000ad51  ADC_Init                                                                  
00008ecd  ADC_Sample                                                                
00004111  AMPERO_Meas02                                                             
10015229  ATOMICPATTERN                                                             
10016c29  AddRoundKeySubBytes_Sw                                                    
10018a19  AesCcm_authEncrypt_Sw                                                     
10018a35  AesCcm_decryptAuth_Sw                                                     
10018b09  AesCcm_getNumBlocks_Sw                                                    
10018ac5  Aes_decrypt_Sw                                                            
10018a99  Aes_encrypt_Sw                                                            
0000959d  AssertHandler                                                             
0001f128  BoardGpioInitTable                                                        
0001f06c  ButtonServiceUUID                                                         
00005499  ButtonService_AddService                                                  
000049e5  ButtonService_RegisterAppCBs                                              
00000ec1  ButtonService_SetParameter                                                
0001f298  Button_ServiceCBs                                                         
00009669  C$$EXIT                                                                   
20004f2c  COMMON_RAM_BASE_ADDR                                                      
10014c01  COMMON_ROM_BASE_ADDR                                                      
10015a6d  COPY                                                                      
00007e01  DAC_SPI_Init                                                              
00008379  DAC_SPI_WriteReg                                                          
0001f09c  DataServiceUUID                                                           
00005c7d  DataService_AddService                                                    
00004c75  DataService_RegisterAppCBs                                                
0000197d  DataService_SetParameter                                                  
0001f2ac  Data_ServiceCBs                                                           
00000501  DefaultAssertCback                                                        
0000bbdd  DevInfo_AddService                                                        
000045bd  DevInfo_SetParameter                                                      
10017959  ECC_allocWorkzone                                                         
10017961  ECC_setWin                                                                
10017969  ECDSA_sign                                                                
10017b01  ECDSA_verif                                                               
10015a11  EXPORTOPERAND                                                             
20004f78  EXPW                                                                      
20004f6c  EXPX                                                                      
20004f70  EXPY                                                                      
20004f74  EXPZ                                                                      
10016f58  FFMult2                                                                   
10017058  FFMult3                                                                   
10016d05  FFMult_Sw                                                                 
10018d6c  Fill1                                                                     
00009779  GAPBondMgr_LinkEst                                                        
0000ad79  GAPBondMgr_LinkTerm                                                       
00009d41  GAPBondMgr_PasscodeRsp                                                    
0000ada1  GAPBondMgr_Register                                                       
00009d79  GAPBondMgr_SetParameter                                                   
00003da5  GAPRole_GetParameter                                                      
00009db1  GAPRole_SendUpdateParam                                                   
00001ced  GAPRole_SetParameter                                                      
0000b1a9  GAPRole_StartDevice                                                       
0000aa15  GAPRole_TerminateConnection                                               
000099f9  GAPRole_createTask                                                        
00008f1d  GAP_DeviceInit                                                            
0000bd5d  GAP_EndDiscoverable                                                       
00009a35  GAP_GetParamValue                                                         
0000bf69  GAP_MakeDiscoverable                                                      
0000c149  GAP_RegisterForMsgs                                                       
0000a1d1  GAP_SetParamValue                                                         
0000bf75  GAP_TerminateAuth                                                         
000097b9  GAP_TerminateLinkReq                                                      
00009315  GAP_UpdateAdvertisingData                                                 
0000bd6d  GAP_UpdateLinkParamReq                                                    
0000bd7d  GAP_UpdateLinkParamReqReply                                               
0000c181  GATTServApp_AddService                                                    
0000b311  GATTServApp_FindAttr                                                      
00009a71  GATTServApp_InitCharCfg                                                   
00008c81  GATTServApp_ProcessCCCWriteReq                                            
00006871  GATTServApp_ProcessCharCfg                                                
0000bd8d  GATTServApp_ReadCharCfg                                                   
000097f9  GATTServApp_RegisterService                                               
0000b111  GATTServApp_WriteCharCfg                                                  
0000bf81  GATT_Indication                                                           
0000b601  GATT_Notification                                                         
0000c151  GATT_RegisterForMsgs                                                      
00009de9  GATT_SendRsp                                                              
0000b1cd  GATT_bm_alloc                                                             
0000b6b5  GATT_bm_free                                                              
10015141  GETBIT                                                                    
10015155  GETDIGIT                                                                  
100151a5  GETDIGITL2R                                                               
0000c159  GGS_AddService                                                            
0000b909  GGS_SetParameter                                                          
0000b1f1  HCI_EXT_ConnEventNoticeCmd                                                
20002e58  HEAPMGR_SIZE                                                              
0000c23d  HwiP_disable                                                              
UNDEFED   HwiP_restore                                                              
000095e1  ICallPlatform_pwrConfigACAction                                           
0000b7e9  ICallPlatform_pwrDispense                                                 
0000be5d  ICallPlatform_pwrGetTransitionState                                       
0000bd9d  ICallPlatform_pwrGetXOSCStartupTime                                       
0000be6b  ICallPlatform_pwrIsStableXOSCHF                                           
00008629  ICallPlatform_pwrRegisterNotify                                           
0000b803  ICallPlatform_pwrRequire                                                  
0000c0d1  ICallPlatform_pwrSwitchXOSCHF                                             
00007739  ICallPlatform_pwrUpdActivityCounter                                       
000071b5  ICall_createRemoteTasks                                                   
20000db0  ICall_dispatcher                                                          
0000b81d  ICall_enterCSImpl                                                         
20000da8  ICall_enterCriticalSection                                                
0000a675  ICall_freeImpl                                                            
0000a675  ICall_heapFree                                                            
000077bd  ICall_heapInit                                                            
00006c59  ICall_heapMalloc                                                          
00008f6d  ICall_init                                                                
0000bbf1  ICall_leaveCSImpl                                                         
20000dac  ICall_leaveCriticalSection                                                
0000c187  ICall_mallocImpl                                                          
0000935d  ICall_searchServiceEntity                                                 
10015a35  IMPORTDATA                                                                
100159a9  IMPORTLENGTH                                                              
100159ad  IMPORTMODULUS                                                             
100159d1  IMPORTOPERAND                                                             
1001568d  INVERT                                                                    
10016da1  InvAddRoundKey_Sw                                                         
10016ed5  InvMixColumns_Sw                                                          
10016dc9  InvRoundKey_Sw                                                            
10017264  InvSbox                                                                   
10016ea1  InvShiftRows_Sw                                                           
10016e8d  InvSubBytes_Sw                                                            
100154f5  JACADD                                                                    
0001f2d4  LED_ServiceCBs                                                            
20004fe8  LEN                                                                       
100158ac  LUTC                                                                      
100158dc  LUTINCI                                                                   
100158f4  LUTJ                                                                      
1001588c  LUTOPCODE                                                                 
10015894  LUTOPSIGN                                                                 
100158c4  LUTSE                                                                     
1001596c  LUTSTATE                                                                  
0001f0cc  LedServiceUUID                                                            
0000003d  LedService_AddService                                                     
00004db5  LedService_RegisterAppCBs                                                 
00002dc5  LedService_SetParameter                                                   
0000c0ef  List_empty                                                                
00000481  List_head                                                                 
0000c241  List_next                                                                 
0000b15d  List_put                                                                  
0000b86b  List_remove                                                               
10018825  MB_ClearInts                                                              
100187f5  MB_DisableInts                                                            
10018835  MB_EnableHWInts                                                           
10018799  MB_EnableInts                                                             
10018945  MB_FwDebugDump                                                            
10018755  MB_Init                                                                   
10018935  MB_ReadMailboxStatus                                                      
1001893d  MB_RegisterIsrCback                                                       
10018865  MB_SendCommand                                                            
100188a5  MB_SendCommandSynch                                                       
20004fe4  MOD                                                                       
20004fd8  MSBMOD                                                                    
10016c79  MixColumns_Sw                                                             
10018b9c  NIST_Curve_P256_Gx                                                        
10018bc0  NIST_Curve_P256_Gy                                                        
10018b54  NIST_Curve_P256_a                                                         
10018b78  NIST_Curve_P256_b                                                         
10018b0c  NIST_Curve_P256_p                                                         
10018b30  NIST_Curve_P256_r                                                         
0000af09  NOROM_AONBatMonTemperatureGetDegC                                         
0000bc05  NOROM_AONRTCCurrent64BitValueGet                                          
0000b951  NOROM_AONRTCCurrentCompareValueGet                                        
0000bfd9  NOROM_CPUcpsid                                                            
0000bfe5  NOROM_CPUcpsie                                                            
0000c18d  NOROM_CPUdelay                                                            
000093a5  NOROM_ChipInfo_GetChipFamily                                              
00007ee1  NOROM_ChipInfo_GetHwRevision                                              
0000b969  NOROM_ChipInfo_GetPackageType                                             
00009879  NOROM_DDI16BitfieldRead                                                   
000093ed  NOROM_DDI16BitfieldWrite                                                  
0000ab49  NOROM_DDI32RegWrite                                                       
0000b6ed  NOROM_OSCClockSourceGet                                                   
0000914d  NOROM_OSCClockSourceSet                                                   
000086e1  NOROM_OSCHF_AttemptToSwitchToXosc                                         
000073f5  NOROM_OSCHF_GetStartupTime                                                
0000a2a1  NOROM_OSCHF_SwitchToRcOscTurnOffXosc                                      
0000b981  NOROM_OSCHF_TurnOnXosc                                                    
00009ae9  NOROM_OSC_HPOSCRelativeFrequencyOffsetGet                                 
00006bb7  NOROM_RFCAdi3VcoLdoVoltageMode                                            
0000b999  NOROM_RFCCpeIntGetAndClear                                                
0000b4b9  NOROM_RFCDoorbellSendTo                                                   
00006ec7  NOROM_RFCRTrim                                                            
0000b4d9  NOROM_RFCRfTrimRead                                                       
0000bdcd  NOROM_RFCRfTrimSet                                                        
00009b25  NOROM_RFCSynthPowerDown                                                   
00007bb5  NOROM_SetupAfterColdResetWakeupFromShutDownCfg1                           
00005d65  NOROM_SetupAfterColdResetWakeupFromShutDownCfg2                           
00004ef5  NOROM_SetupAfterColdResetWakeupFromShutDownCfg3                           
0000b9b1  NOROM_SetupGetTrimForAdcShModeEn                                          
0000b9c9  NOROM_SetupGetTrimForAdcShVbufEn                                          
00007fc1  NOROM_SetupGetTrimForAmpcompCtrl                                          
0000b9e1  NOROM_SetupGetTrimForAmpcompTh1                                           
0000b709  NOROM_SetupGetTrimForAmpcompTh2                                           
00008171  NOROM_SetupGetTrimForAnabypassValue1                                      
0000b9f9  NOROM_SetupGetTrimForDblrLoopFilterResetVoltage                           
0000ab75  NOROM_SetupGetTrimForRadcExtCfg                                           
0000ba11  NOROM_SetupGetTrimForRcOscLfIBiasTrim                                     
0000b725  NOROM_SetupGetTrimForRcOscLfRtuneCtuneTrim                                
0000b4f9  NOROM_SetupGetTrimForXoscHfCtl                                            
0000bddd  NOROM_SetupGetTrimForXoscHfFastStart                                      
0000bded  NOROM_SetupGetTrimForXoscHfIbiastherm                                     
0000ba29  NOROM_SetupGetTrimForXoscLfRegulatorAndCmirrwrRatio                       
0000a6d5  NOROM_SetupSetAonRtcSubSecInc                                             
0000900d  NOROM_SetupSetCacheModeAccordingToCcfgSetting                             
0000bec1  NOROM_SetupSignExtendVddrTrimValue                                        
00006a71  NOROM_SetupTrimDevice                                                     
0000873d  NOROM_SysCtrlAdjustRechargeAfterPowerDown                                 
0000326d  NOROM_SysCtrlSetRechargeBeforePowerDown                                   
000081d9  NOROM_SysCtrl_DCDC_VoltageConditionalControl                              
0000a2d5  NOROM_TRNGConfigure                                                       
0000bc19  NOROM_ThisCodeIsBuiltForCC26xxHwRev22AndLater_HaltIfViolated              
0000becf  NOROM_VIMSModeGet                                                         
10014c04  P1_ro                                                                     
10019ffe  P1_ro_2                                                                   
20004f40  P2_rw                                                                     
20004f40  P2_s0                                                                     
20004fac  P2_zi                                                                     
00009b61  PINCC26XX_getConfig                                                       
0000b215  PINCC26XX_getPinCount                                                     
0001f398  PINCC26XX_hwAttrs                                                         
0000aba1  PINCC26XX_setMux                                                          
200028ec  PIN_HandleTable                                                           
20002e60  PIN_NumPins                                                               
0000802d  PIN_add                                                                   
0000b63d  PIN_close                                                                 
0000ba41  PIN_getConfig                                                             
0000bc2d  PIN_getInputValue                                                         
0000bc41  PIN_getOutputValue                                                        
00003be1  PIN_init                                                                  
00006ff9  PIN_open                                                                  
0000bff1  PIN_registerIntCb                                                         
00008799  PIN_remove                                                                
0000a309  PIN_setConfig                                                             
00009e59  PIN_setInterrupt                                                          
00009b9d  PIN_setOutputValue                                                        
00008509  PowerCC26XX_RCOSC_clockFunc                                               
00007ca5  PowerCC26XX_auxISR                                                        
00008099  PowerCC26XX_calibrate                                                     
0001f33c  PowerCC26XX_config                                                        
000042bd  PowerCC26XX_doCalibrate                                                   
000073f5  PowerCC26XX_getXoscStartupTime                                            
00008b21  PowerCC26XX_initiateCalibration                                           
0000a33d  PowerCC26XX_isStableXOSC_HF                                               
20000650  PowerCC26XX_module                                                        
00006595  PowerCC26XX_standbyPolicy                                                 
0000af31  PowerCC26XX_switchXOSC_HF                                                 
0000bffd  Power_getConstraintMask                                                   
0000c009  Power_getDependencyCount                                                  
0000b65b  Power_getTransitionLatency                                                
0000c015  Power_getTransitionState                                                  
0000ba59  Power_idleFunc                                                            
0000514d  Power_init                                                                
0000af59  Power_registerNotify                                                      
0000a705  Power_releaseConstraint                                                   
00005ffd  Power_releaseDependency                                                   
0000a735  Power_setConstraint                                                       
000061a5  Power_setDependency                                                       
00003045  Power_sleep                                                               
0000b519  Power_unregisterNotify                                                    
00009bd9  ProjectZero_createTask                                                    
10017158  RCon                                                                      
0001f3b0  RFCC26XX_hwAttrs                                                          
10018415  RFHAL_AddTxDataEntry                                                      
100184f9  RFHAL_AllocDataEntry                                                      
100184a9  RFHAL_AllocDataEntryQueue                                                 
10018315  RFHAL_AllocRatChan                                                        
100185e1  RFHAL_BuildDataEntryRingBuffer                                            
10018669  RFHAL_BuildLinkedBuffer                                                   
10018551  RFHAL_BuildRingBuffer                                                     
10018549  RFHAL_FreeDataEntry                                                       
100184c5  RFHAL_FreeDataEntryQueue                                                  
10018485  RFHAL_FreeNextTxDataEntry                                                 
1001833d  RFHAL_FreeRatChan                                                         
100184cd  RFHAL_GetNextDataEntry                                                    
100184d1  RFHAL_GetTempDataEntry                                                    
100183b9  RFHAL_InitDataQueue                                                       
100182ad  RFHAL_InitRfHal                                                           
10018369  RFHAL_MapRatChansToInt                                                    
100184d5  RFHAL_NextDataEntryDone                                                   
100183c5  RFHAL_QueueRFDataEntries                                                  
10018391  RFHAL_RegisterRatChanCallback                                             
0000bc69  RF_Params_init                                                            
00003a15  RF_cancelCmd                                                              
0000c161  RF_flushCmd                                                               
0000bcfd  RF_getCmdOp                                                               
00008241  RF_getCurrentTime                                                         
000082a9  RF_getInfo                                                                
0000947d  RF_getRssi                                                                
0000640d  RF_open                                                                   
000078c1  RF_pendCmd                                                                
00003f61  RF_postCmd                                                                
000094c5  RF_runCmd                                                                 
0000ba89  RF_runDirectCmd                                                           
0000baa1  RF_runImmediateCmd                                                        
0000c021  RegisterAssertCback                                                       
00009625  ResetISR                                                                  
10016b79  RoundKey_Sw                                                               
10015101  SAVEPOINT                                                                 
20004f68  SCAL                                                                      
100150e5  SCALARMUL                                                                 
10014ced  SCALARMUL_core                                                            
10015019  SCALARMUL_final                                                           
10014c05  SCALARMUL_init                                                            
10015a51  SETOPERAND                                                                
10015a91  SETWORD                                                                   
10018089  SHA256_final                                                              
10018129  SHA256_full                                                               
10017ffd  SHA256_init                                                               
10017ef1  SHA256_nextState                                                          
10018019  SHA256_process                                                            
10017e75  SHA256_round                                                              
10017f49  SHA256_saveBuffer                                                         
10017e39  SHA256_updateW                                                            
UNDEFED   SHT$$INIT_ARRAY$$Base                                                     
UNDEFED   SHT$$INIT_ARRAY$$Limit                                                    
00008965  SPICC26XXDMA_close                                                        
00007481  SPICC26XXDMA_control                                                      
0000deac  SPICC26XXDMA_fxnTable                                                     
0000bedd  SPICC26XXDMA_init                                                         
00004b2d  SPICC26XXDMA_open                                                         
000064d1  SPICC26XXDMA_transfer                                                     
00005b91  SPICC26XXDMA_transferCancel                                               
0000bc7d  SPI_Params_init                                                           
0001f1cc  SPI_config                                                                
0000dfe0  SPI_defaultParams                                                         
0000a795  SPI_open                                                                  
0000c0f9  SPI_transfer                                                              
10015821  SQUAREMULTIPLYWORD                                                        
10017895  SSP_CCM_Auth_Encrypt_Sw                                                   
10017365  SSP_CCM_Auth_Sw                                                           
1001767d  SSP_CCM_Decrypt_Sw                                                        
100174fd  SSP_CCM_Encrypt_Sw                                                        
100178f5  SSP_CCM_InvAuth_Decrypt_Sw                                                
10017839  SSP_CCM_InvAuth_Sw                                                        
10017771  SSP_CTR_Decrypt_Sw                                                        
100175ed  SSP_CTR_Encrypt_Sw                                                        
0000afa9  SafeHapiVoid                                                              
10017164  Sbox                                                                      
10015215  SelectReg                                                                 
10016c45  ShiftRows_Sw                                                              
20004f88  TMP1                                                                      
20004f8c  TMP2                                                                      
20004f90  TMP3                                                                      
20004f94  TMP4                                                                      
20004f98  TMP5                                                                      
20004f9c  TMP6                                                                      
0001f3b4  TRNGCC26XXHWAttrs                                                         
0001f34c  TRNGCC26XX_config                                                         
0000750d  TRNGCC26XX_getNumber                                                      
0000afd1  TRNGCC26XX_init                                                           
0000a3a5  TRNGCC26XX_isParamValid                                                   
0000b539  TRNGCC26XX_open                                                           
0000c103  UART_write                                                                
0000a057  UDMACC26XX_close                                                          
0001f35c  UDMACC26XX_config                                                         
0000c10d  UDMACC26XX_hwiIntFxn                                                      
000087f5  UDMACC26XX_open                                                           
00008b79  Util_constructClock                                                       
00008851  Util_convertBdAddr2Str                                                    
0000bdfd  Util_isActive                                                             
0000a3d9  Util_restartClock                                                         
0000c249  Util_stopClock                                                            
10015a85  ZERO                                                                      
00000000  __ASM__                                                                   
00000081  __ISA__                                                                   
00000093  __PLAT__                                                                  
20004348  __STACK_END                                                               
00000400  __STACK_SIZE                                                              
20004348  __STACK_TOP                                                               
000000ba  __TARG__                                                                  
0001fba0  __TI_CINIT_Base                                                           
0001fc20  __TI_CINIT_Limit                                                          
0001fb28  __TI_Handler_Table_Base                                                   
0001fb34  __TI_Handler_Table_Limit                                                  
00006bb9  __TI_auto_init                                                            
20000df8  __TI_cleanup_ptr                                                          
0000beeb  __TI_decompress_none                                                      
0000c1a5  __TI_decompress_rle24                                                     
20000dfc  __TI_dtors_ptr                                                            
00000000  __TI_static_base__                                                        
0000c02d  __TI_zero_init                                                            
000000df  __TRDR__                                                                  
00009555  __aeabi_d2iz                                                              
000058a9  __aeabi_dmul                                                              
0000816f  __aeabi_idiv0                                                             
0000bb19  __aeabi_lmul                                                              
00007b39  __aeabi_memclr                                                            
00007b39  __aeabi_memclr4                                                           
00007b39  __aeabi_memclr8                                                           
00006d91  __aeabi_memcpy                                                            
00006d91  __aeabi_memcpy4                                                           
00006d91  __aeabi_memcpy8                                                           
00007b3b  __aeabi_memset                                                            
00007b3b  __aeabi_memset4                                                           
00007b3b  __aeabi_memset8                                                           
0000b579  __aeabi_ui2d                                                              
000098b9  __aeabi_uidiv                                                             
000098b9  __aeabi_uidivmod                                                          
00003471  __aeabi_uldivmod                                                          
ffffffff  __binit__                                                                 
0001f404  __c_args__                                                                
0001ffa8  __ccfg                                                                    
10019ffe  __checksum_CommonROM                                                      
10014c00  __checksum_begin_CommonROM                                                
10019ffd  __checksum_end_CommonROM                                                  
0000e0ea  __checksum_value_CommonROM                                                
10018ced  __exit                                                                    
20003f48  __stack                                                                   
0000c193  __xdc__init                                                               
20000844  __xdc__init__addr                                                         
0000bb01  _args_main                                                                
00009625  _c_int00                                                                  
20000df0  _lock                                                                     
0000bcb3  _nop                                                                      
0000bcab  _register_lock                                                            
0000bca5  _register_unlock                                                          
20000df4  _unlock                                                                   
0000966d  abort                                                                     
20000934  adcPinTable                                                               
20000e08  appAssertCback                                                            
0001f116  appearanceUUID                                                            
20004fdc  aux64                                                                     
ffffffff  binit                                                                     
0001f07c  bs_BUTTON0UUID                                                            
0001f08c  bs_BUTTON1UUID                                                            
00008311  bspSpiOpen                                                                
0000a7c5  bspSpiWrite                                                               
2000093c  buttonPinTable                                                            
0000c199  calcDacDataLSB                                                            
0001f11e  centAddrResUUID                                                           
0001f112  charAggFormatUUID                                                         
0001f108  charExtPropsUUID                                                          
0001f110  charFormatUUID                                                            
0001f10a  charUserDescUUID                                                          
0001f106  characterUUID                                                             
0001f10c  clientCharCfgUUID                                                         
00009231  copy_in                                                                   
2000092c  daccsPinTable                                                             
0001f278  devInfo11073CertUUID                                                      
0001f2c0  devInfoCBs                                                                
0001f270  devInfoFirmwareRevUUID                                                    
0001f272  devInfoHardwareRevUUID                                                    
0001f276  devInfoMfrNameUUID                                                        
0001f26c  devInfoModelNumberUUID                                                    
0001f27a  devInfoPnpIdUUID                                                          
0001f26e  devInfoSerialNumberUUID                                                   
0001f268  devInfoServUUID                                                           
0001f274  devInfoSoftwareRevUUID                                                    
0001f26a  devInfoSystemIdUUID                                                       
0001f114  deviceNameUUID                                                            
20002e7c  dispHandle                                                                
0000bbb1  driverTable_fnSpinlock                                                    
20002ed2  driverlib_release_0_46593                                                 
0001f0bc  ds_StreamUUID                                                             
0001f0ac  ds_StringUUID                                                             
10017dbd  eccRom_genKeys                                                            
10017ded  eccRom_genSharedSecret                                                    
20004fa0  eccRom_param_Gx                                                           
20004fa4  eccRom_param_Gy                                                           
20004f50  eccRom_param_a                                                            
20004fa8  eccRom_param_b                                                            
20004f48  eccRom_param_p                                                            
20004f4c  eccRom_param_r                                                            
20004f40  eccRom_windowSize                                                         
20004f44  eccRom_workzone                                                           
00009675  exit                                                                      
0001f124  extReportRefUUID                                                          
20004fcc  fwInfoCmd                                                                 
20002968  gapRoleTask                                                               
200020b8  gapRoleTaskStack                                                          
0000bad1  gapRole_clockHandler                                                      
0001f0fc  gapServiceUUID                                                            
0001f0fe  gattServiceUUID                                                           
20003f48  heapEnd                                                                   
20002ede  heapStart                                                                 
20004f58  inPointX                                                                  
20004f5c  inPointY                                                                  
20004f54  inScalar                                                                  
0001f104  includeUUID                                                               
20000dc4  lastAppOpcodeSent                                                         
20000924  ledPinTable                                                               
20002ed9  linkDBNumConns                                                            
00009ec9  linkDB_NumConns                                                           
0001f0dc  ls_LED0UUID                                                               
0001f0ec  ls_LED1UUID                                                               
10016551  mADD                                                                      
10015bd5  mINVK                                                                     
10015f81  mMULT                                                                     
10016749  mOUT                                                                      
10015a9d  mSET                                                                      
1001664d  mSUB                                                                      
0000a855  main                                                                      
20000e10  main_func_sp                                                              
10018949  mbCmdAckIsr                                                               
1001895d  mbCpe0Isr                                                                 
10018985  mbCpe1Isr                                                                 
100189e5  mbHwIsr                                                                   
0000b333  memcmp                                                                    
00006d91  memcpy                                                                    
00007b41  memset                                                                    
0000bae9  openTRNG                                                                  
00009f01  osal_snv_read                                                             
00009f39  osal_snv_write                                                            
20004f60  outPointX                                                                 
20004f64  outPointY                                                                 
20004ffc  pSspAesEncrypt_Sw                                                         
0001f11c  periConnParamUUID                                                         
0001f118  periPrivacyFlagUUID                                                       
20000dc8  pfnBMAlloc                                                                
20000dcc  pfnBMFree                                                                 
0001f100  primaryServiceUUID                                                        
200029b8  przTask                                                                   
20001d98  przTaskStack                                                              
20004fac  ratChanInfo                                                               
0001f11a  reconnectAddrUUID                                                         
0001f126  reportRefUUID                                                             
0000df00  resourceDB                                                                
0000df4c  rfDriverTable                                                             
20000b2c  rfRegTbl                                                                  
00008ecb  scCtrlReadyCallback                                                       
00009313  scTaskAlertCallback                                                       
0001f1f0  scifDriverSetup                                                           
00005e49  scifInit                                                                  
00008c29  scifInitIo                                                                
UNDEFED   scifOsalEnterCriticalSection                                              
00009f71  scifOsalInit                                                              
UNDEFED   scifOsalLeaveCriticalSection                                              
0000c069  scifOsalRegisterCtrlReadyCallback                                         
0000c075  scifOsalRegisterTaskAlertCallback                                         
0000a511  scifReinitIo                                                              
00007625  scifResetTaskStructs                                                      
0000abf9  scifStartRtcTicks                                                         
0000a88d  scifStartRtcTicksNow                                                      
0000c22b  scifStartTasksNbl                                                         
0000b071  scifStopRtcTicks                                                          
0000c231  scifStopTasksNbl                                                          
0000a545  scifUninitIo                                                              
0000bb31  scifWaitOnNbl                                                             
0001f102  secondaryServiceUUID                                                      
0001f10e  servCharCfgUUID                                                           
0001f120  serviceChangedUUID                                                        
0001f000  spiCC26XXDMAHWAttrs                                                       
200024c0  spiCC26XXDMAObjects                                                       
10016d29  sspAesDecrypt_Sw                                                          
10016af5  sspAesEncryptBasic_Sw                                                     
10016a99  sspAesEncryptKeyExp_Sw                                                    
10016979  sspAesEncrypt_Sw                                                          
10016985  sspKeyExpansion_Sw                                                        
10016975  ssp_KeyInit_Sw                                                            
0000bcb9  strlen                                                                    
200001a4  ti_sysbios_BIOS_Module__state__V                                          
1001bc29  ti_sysbios_BIOS_RtsGateProxy_Handle__label__S                             
UNDEFED   ti_sysbios_BIOS_RtsGateProxy_Handle__label__S__mangled__                  
1001bab9  ti_sysbios_BIOS_RtsGateProxy_Object__delete__S                            
UNDEFED   ti_sysbios_BIOS_RtsGateProxy_Object__delete__S__mangled__                 
1001c179  ti_sysbios_BIOS_RtsGateProxy_Params__init__S                              
UNDEFED   ti_sysbios_BIOS_RtsGateProxy_Params__init__S__mangled__                   
1001c249  ti_sysbios_BIOS_RtsGateProxy_enter__E                                     
1001c24d  ti_sysbios_BIOS_RtsGateProxy_leave__E                                     
1001c275  ti_sysbios_BIOS_RtsGateProxy_query__E                                     
UNDEFED   ti_sysbios_BIOS_RtsGateProxy_query__E__mangled__                          
0000a8bd  ti_sysbios_BIOS_atExitFunc__I                                             
0000bbc7  ti_sysbios_BIOS_exitFunc__I                                               
1001c035  ti_sysbios_BIOS_exit__E                                                   
1001bff9  ti_sysbios_BIOS_getCpuFreq__E                                             
0000c08d  ti_sysbios_BIOS_getThreadType__E                                          
00009777  ti_sysbios_BIOS_linkedWithIncorrectBootLibrary__E                         
000099f7  ti_sysbios_BIOS_nullFunc__I                                               
0000b2a5  ti_sysbios_BIOS_registerRTSLock__I                                        
0000b2c9  ti_sysbios_BIOS_removeRTSLock__I                                          
0000b599  ti_sysbios_BIOS_rtsLock__I                                                
0000bb61  ti_sysbios_BIOS_rtsUnlock__I                                              
1001c045  ti_sysbios_BIOS_setThreadType__E                                          
0000a8f5  ti_sysbios_BIOS_startFunc__I                                              
1001c055  ti_sysbios_BIOS_start__E                                                  
00006a71  ti_sysbios_family_arm_cc26xx_Boot_trimDevice                              
00000502  ti_sysbios_family_arm_cc26xx_Timer_Module__id__C                          
20000760  ti_sysbios_family_arm_cc26xx_Timer_Module__root__V                        
1001bb49  ti_sysbios_family_arm_cc26xx_Timer_Module__startupDone__S                 
200001e4  ti_sysbios_family_arm_cc26xx_Timer_Module__state__V                       
1001ba71  ti_sysbios_family_arm_cc26xx_Timer_Module_startup__E                      
20000bc8  ti_sysbios_family_arm_cc26xx_Timer_Object__table__V                       
0000b795  ti_sysbios_family_arm_cc26xx_Timer_dynamicStub__E                         
0000c251  ti_sysbios_family_arm_cc26xx_Timer_getCount64__E                          
00009fa9  ti_sysbios_family_arm_cc26xx_Timer_getCurrentTick__E                      
1001c251  ti_sysbios_family_arm_cc26xx_Timer_getExpiredTicks__E                     
0000b099  ti_sysbios_family_arm_cc26xx_Timer_getMaxTicks__E                         
1001c255  ti_sysbios_family_arm_cc26xx_Timer_getPeriod__E                           
0000a94d  ti_sysbios_family_arm_cc26xx_Timer_initDevice__I                          
1001a469  ti_sysbios_family_arm_cc26xx_Timer_periodicStub__E                        
1001b769  ti_sysbios_family_arm_cc26xx_Timer_postInit__I                            
0000a643  ti_sysbios_family_arm_cc26xx_Timer_setNextTick__E                         
1001c259  ti_sysbios_family_arm_cc26xx_Timer_setPeriod__E                           
0000a97d  ti_sysbios_family_arm_cc26xx_Timer_setThreshold__I                        
000084a5  ti_sysbios_family_arm_cc26xx_Timer_start__E                               
00000484  ti_sysbios_family_arm_cc26xx_Timer_startupNeeded__C                       
1001b795  ti_sysbios_family_arm_cc26xx_Timer_startup__E                             
200001ec  ti_sysbios_family_arm_cc26xx_TimestampProvider_Module__state__V           
1001bb69  ti_sysbios_family_arm_cc26xx_TimestampProvider_Module_startup__E          
0000bf5b  ti_sysbios_family_arm_cc26xx_TimestampProvider_get32__E                   
1001b9d1  ti_sysbios_family_arm_cc26xx_TimestampProvider_get64__E                   
1001c12f  ti_sysbios_family_arm_cc26xx_TimestampProvider_getFreq__E                 
00000504  ti_sysbios_family_arm_cc26xx_TimestampProvider_useClockTimer__C           
00000488  ti_sysbios_family_arm_m3_Hwi_E_alreadyDefined__C                          
0000048c  ti_sysbios_family_arm_m3_Hwi_E_hwiLimitExceeded__C                        
1001aed1  ti_sysbios_family_arm_m3_Hwi_Instance_finalize__E                         
1001a3c9  ti_sysbios_family_arm_m3_Hwi_Instance_init__E                             
20000788  ti_sysbios_family_arm_m3_Hwi_Module_State_0_excActive__A                  
2000078c  ti_sysbios_family_arm_m3_Hwi_Module_State_0_excContext__A                 
20000790  ti_sysbios_family_arm_m3_Hwi_Module_State_0_excStack__A                   
00000506  ti_sysbios_family_arm_m3_Hwi_Module__id__C                                
20000768  ti_sysbios_family_arm_m3_Hwi_Module__root__V                              
1001bb89  ti_sysbios_family_arm_m3_Hwi_Module__startupDone__S                       
20000144  ti_sysbios_family_arm_m3_Hwi_Module__state__V                             
1001b1c1  ti_sysbios_family_arm_m3_Hwi_Module_startup__E                            
00000490  ti_sysbios_family_arm_m3_Hwi_NUM_INTERRUPTS__C                            
000002d0  ti_sysbios_family_arm_m3_Hwi_Object__DESC__C                              
00000170  ti_sysbios_family_arm_m3_Hwi_Object__PARAMS__C                            
00000494  ti_sysbios_family_arm_m3_Hwi_Object__count__C                             
1001aab1  ti_sysbios_family_arm_m3_Hwi_Object__create__S                            
1001bba9  ti_sysbios_family_arm_m3_Hwi_Object__delete__S                            
1001be69  ti_sysbios_family_arm_m3_Hwi_Object__destruct__S                          
1001b7c1  ti_sysbios_family_arm_m3_Hwi_Object__get__S                               
00000498  ti_sysbios_family_arm_m3_Hwi_Object__table__C                             
20000770  ti_sysbios_family_arm_m3_Hwi_Object__table__V                             
1001c13d  ti_sysbios_family_arm_m3_Hwi_Params__init__S                              
0000049c  ti_sysbios_family_arm_m3_Hwi_ccr__C                                       
0000b7b1  ti_sysbios_family_arm_m3_Hwi_clearInterrupt__E                            
1001af29  ti_sysbios_family_arm_m3_Hwi_construct                                    
1001ab15  ti_sysbios_family_arm_m3_Hwi_create                                       
1001c25d  ti_sysbios_family_arm_m3_Hwi_delete                                       
1001c261  ti_sysbios_family_arm_m3_Hwi_destruct                                     
1001c149  ti_sysbios_family_arm_m3_Hwi_disableFxn__E                                
1001b299  ti_sysbios_family_arm_m3_Hwi_disableInterrupt__E                          
1001aa49  ti_sysbios_family_arm_m3_Hwi_dispatchC__I                                 
20002778  ti_sysbios_family_arm_m3_Hwi_dispatchTable                                
1001c89d  ti_sysbios_family_arm_m3_Hwi_dispatch__I                                  
1001c1fb  ti_sysbios_family_arm_m3_Hwi_doSwiRestore__I                              
1001c213  ti_sysbios_family_arm_m3_Hwi_doTaskRestore__I                             
1001c155  ti_sysbios_family_arm_m3_Hwi_enableFxn__E                                 
1001b2dd  ti_sysbios_family_arm_m3_Hwi_enableInterrupt__E                           
1001ca01  ti_sysbios_family_arm_m3_Hwi_excHandlerAsm__I                             
000004a0  ti_sysbios_family_arm_m3_Hwi_excHandlerFunc__C                            
1001bbc9  ti_sysbios_family_arm_m3_Hwi_excHandler__I                                
1001b465  ti_sysbios_family_arm_m3_Hwi_getStackInfo__E                              
1001a699  ti_sysbios_family_arm_m3_Hwi_initNVIC__E                                  
1001c9b9  ti_sysbios_family_arm_m3_Hwi_initStacks__E                                
000004a4  ti_sysbios_family_arm_m3_Hwi_nullIsrFunc__C                               
000004a8  ti_sysbios_family_arm_m3_Hwi_numSparseInterrupts__C                       
e000e000  ti_sysbios_family_arm_m3_Hwi_nvic                                         
1001ca3f  ti_sysbios_family_arm_m3_Hwi_pendSV__I                                    
1001c065  ti_sysbios_family_arm_m3_Hwi_plug__E                                      
1001a319  ti_sysbios_family_arm_m3_Hwi_postInit__I                                  
0000be0d  ti_sysbios_family_arm_m3_Hwi_post__E                                      
000004ac  ti_sysbios_family_arm_m3_Hwi_priGroup__C                                  
20000000  ti_sysbios_family_arm_m3_Hwi_ramVectors                                   
00000000  ti_sysbios_family_arm_m3_Hwi_resetVectors                                 
1001c219  ti_sysbios_family_arm_m3_Hwi_restoreFxn__E                                
1001ca57  ti_sysbios_family_arm_m3_Hwi_return                                       
0000c237  ti_sysbios_family_arm_m3_Hwi_setFunc__E                                   
1001be85  ti_sysbios_family_arm_m3_Hwi_setPriority__E                               
1001c203  ti_sysbios_family_arm_m3_Hwi_startup__E                                   
1001c00d  ti_sysbios_family_arm_m3_Hwi_switchFromBootStack__E                       
1001c265  ti_sysbios_family_arm_m3_TaskSupport_Module__startupDone__S               
1001c96d  ti_sysbios_family_arm_m3_TaskSupport_buildTaskStack                       
1001c161  ti_sysbios_family_arm_m3_TaskSupport_getStackAlignment__E                 
1001ca59  ti_sysbios_family_arm_m3_TaskSupport_glue                                 
000004b0  ti_sysbios_family_arm_m3_TaskSupport_stackAlignment__C                    
1001b49d  ti_sysbios_family_arm_m3_TaskSupport_start__E                             
1001ca69  ti_sysbios_family_arm_m3_TaskSupport_swap__E                              
1001ca21  ti_sysbios_family_xxx_Hwi_switchAndRunFunc                                
1001bbe9  ti_sysbios_gates_GateHwi_Handle__label__S                                 
1001b463  ti_sysbios_gates_GateHwi_Instance_init__E                                 
0000021c  ti_sysbios_gates_GateHwi_Module__FXNS__C                                  
00000508  ti_sysbios_gates_GateHwi_Module__id__C                                    
20000794  ti_sysbios_gates_GateHwi_Module__root__V                                  
000002f0  ti_sysbios_gates_GateHwi_Object__DESC__C                                  
00000430  ti_sysbios_gates_GateHwi_Object__PARAMS__C                                
1001ba95  ti_sysbios_gates_GateHwi_Object__create__S                                
1001bc09  ti_sysbios_gates_GateHwi_Object__delete__S                                
2000079c  ti_sysbios_gates_GateHwi_Object__table__V                                 
1001c16d  ti_sysbios_gates_GateHwi_enter__E                                         
1001c21f  ti_sysbios_gates_GateHwi_leave__E                                         
1001c269  ti_sysbios_gates_GateHwi_query__E                                         
1001bc29  ti_sysbios_gates_GateMutex_Handle__label__S                               
000005cc  ti_sysbios_gates_GateMutex_Instance_State_sem__O                          
1001c075  ti_sysbios_gates_GateMutex_Instance_finalize__E                           
1001bea1  ti_sysbios_gates_GateMutex_Instance_init__E                               
00000240  ti_sysbios_gates_GateMutex_Module__FXNS__C                                
0000050a  ti_sysbios_gates_GateMutex_Module__id__C                                  
200007a0  ti_sysbios_gates_GateMutex_Module__root__V                                
00000310  ti_sysbios_gates_GateMutex_Object__DESC__C                                
00000448  ti_sysbios_gates_GateMutex_Object__PARAMS__C                              
1001b649  ti_sysbios_gates_GateMutex_Object__create__S                              
1001bab9  ti_sysbios_gates_GateMutex_Object__delete__S                              
1001bc49  ti_sysbios_gates_GateMutex_Object__destruct__S                            
20000c10  ti_sysbios_gates_GateMutex_Object__table__V                               
1001c179  ti_sysbios_gates_GateMutex_Params__init__S                                
1001b7ed  ti_sysbios_gates_GateMutex_construct                                      
1001b679  ti_sysbios_gates_GateMutex_create                                         
1001c26d  ti_sysbios_gates_GateMutex_delete                                         
1001c271  ti_sysbios_gates_GateMutex_destruct                                       
1001b6a9  ti_sysbios_gates_GateMutex_enter__E                                       
1001bf9d  ti_sysbios_gates_GateMutex_leave__E                                       
1001c275  ti_sysbios_gates_GateMutex_query__E                                       
1001c279  ti_sysbios_hal_Hwi_HwiProxy_Module__startupDone__S                        
UNDEFED   ti_sysbios_hal_Hwi_HwiProxy_Module__startupDone__S__mangled__             
1001c085  ti_sysbios_hal_Hwi_HwiProxy_Object__create__S                             
1001bba9  ti_sysbios_hal_Hwi_HwiProxy_Object__delete__S                             
UNDEFED   ti_sysbios_hal_Hwi_HwiProxy_Object__delete__S__mangled__                  
1001c13d  ti_sysbios_hal_Hwi_HwiProxy_Params__init__S                               
UNDEFED   ti_sysbios_hal_Hwi_HwiProxy_Params__init__S__mangled__                    
0000b7b1  ti_sysbios_hal_Hwi_HwiProxy_clearInterrupt__E                             
1001be49  ti_sysbios_hal_Hwi_HwiProxy_create                                        
1001c27d  ti_sysbios_hal_Hwi_HwiProxy_delete                                        
1001c281  ti_sysbios_hal_Hwi_HwiProxy_disableInterrupt__E                           
UNDEFED   ti_sysbios_hal_Hwi_HwiProxy_disableInterrupt__E__mangled__                
1001c285  ti_sysbios_hal_Hwi_HwiProxy_enableInterrupt__E                            
UNDEFED   ti_sysbios_hal_Hwi_HwiProxy_enableInterrupt__E__mangled__                 
1001c289  ti_sysbios_hal_Hwi_HwiProxy_getStackInfo__E                               
UNDEFED   ti_sysbios_hal_Hwi_HwiProxy_getStackInfo__E__mangled__                    
0000be0d  ti_sysbios_hal_Hwi_HwiProxy_post__E                                       
1001c28d  ti_sysbios_hal_Hwi_HwiProxy_startup__E                                    
UNDEFED   ti_sysbios_hal_Hwi_HwiProxy_startup__E__mangled__                         
1001c291  ti_sysbios_hal_Hwi_HwiProxy_switchFromBootStack__E                        
UNDEFED   ti_sysbios_hal_Hwi_HwiProxy_switchFromBootStack__E__mangled__             
1001c1f1  ti_sysbios_hal_Hwi_Instance_finalize__E                                   
1001b9f9  ti_sysbios_hal_Hwi_Instance_init__E                                       
200007a8  ti_sysbios_hal_Hwi_Module__root__V                                        
1001c021  ti_sysbios_hal_Hwi_Module_startup__E                                      
00000330  ti_sysbios_hal_Hwi_Object__DESC__C                                        
000001a0  ti_sysbios_hal_Hwi_Object__PARAMS__C                                      
1001bc69  ti_sysbios_hal_Hwi_Object__delete__S                                      
0000c099  ti_sysbios_hal_Hwi_Params__init__S                                        
0000b7b1  ti_sysbios_hal_Hwi_clearInterrupt__E                                      
1001ab79  ti_sysbios_hal_Hwi_create                                                 
1001c295  ti_sysbios_hal_Hwi_delete                                                 
1001c281  ti_sysbios_hal_Hwi_disableInterrupt__E                                    
UNDEFED   ti_sysbios_hal_Hwi_disableInterrupt__E                                    
1001c285  ti_sysbios_hal_Hwi_enableInterrupt__E                                     
UNDEFED   ti_sysbios_hal_Hwi_enableInterrupt__E                                     
1001c289  ti_sysbios_hal_Hwi_getStackInfo__E                                        
UNDEFED   ti_sysbios_hal_Hwi_getStackInfo__E                                        
1001b819  ti_sysbios_hal_Hwi_initStack                                              
0000be0d  ti_sysbios_hal_Hwi_post__E                                                
1001c28d  ti_sysbios_hal_Hwi_startup__E                                             
UNDEFED   ti_sysbios_hal_Hwi_startup__E                                             
1001c299  ti_sysbios_hal_Hwi_switchFromBootStack__E                                 
UNDEFED   ti_sysbios_hal_Hwi_switchFromBootStack__E                                 
000004b4  ti_sysbios_heaps_HeapMem_E_memory__C                                      
1001bc89  ti_sysbios_heaps_HeapMem_Handle__label__S                                 
20000e18  ti_sysbios_heaps_HeapMem_Instance_State_0_buf__A                          
1001b4d5  ti_sysbios_heaps_HeapMem_Instance_init__E                                 
1001bc29  ti_sysbios_heaps_HeapMem_Module_GateProxy_Handle__label__S                
UNDEFED   ti_sysbios_heaps_HeapMem_Module_GateProxy_Handle__label__S__mangled__     
1001bab9  ti_sysbios_heaps_HeapMem_Module_GateProxy_Object__delete__S               
UNDEFED   ti_sysbios_heaps_HeapMem_Module_GateProxy_Object__delete__S__mangled__    
1001c179  ti_sysbios_heaps_HeapMem_Module_GateProxy_Params__init__S                 
UNDEFED   ti_sysbios_heaps_HeapMem_Module_GateProxy_Params__init__S__mangled__      
1001c29d  ti_sysbios_heaps_HeapMem_Module_GateProxy_enter__E                        
1001c2a1  ti_sysbios_heaps_HeapMem_Module_GateProxy_leave__E                        
1001c275  ti_sysbios_heaps_HeapMem_Module_GateProxy_query__E                        
UNDEFED   ti_sysbios_heaps_HeapMem_Module_GateProxy_query__E__mangled__             
000001cc  ti_sysbios_heaps_HeapMem_Module__FXNS__C                                  
000004b8  ti_sysbios_heaps_HeapMem_Module__gateObj__C                               
0000050c  ti_sysbios_heaps_HeapMem_Module__id__C                                    
200007b0  ti_sysbios_heaps_HeapMem_Module__root__V                                  
00000350  ti_sysbios_heaps_HeapMem_Object__DESC__C                                  
00000264  ti_sysbios_heaps_HeapMem_Object__PARAMS__C                                
000004bc  ti_sysbios_heaps_HeapMem_Object__count__C                                 
1001b845  ti_sysbios_heaps_HeapMem_Object__create__S                                
1001bca9  ti_sysbios_heaps_HeapMem_Object__delete__S                                
1001b871  ti_sysbios_heaps_HeapMem_Object__get__S                                   
000004c0  ti_sysbios_heaps_HeapMem_Object__table__C                                 
200007b8  ti_sysbios_heaps_HeapMem_Object__table__V                                 
1001a199  ti_sysbios_heaps_HeapMem_alloc__E                                         
1001a795  ti_sysbios_heaps_HeapMem_free__E                                          
1001b209  ti_sysbios_heaps_HeapMem_getStats__E                                      
1001b545  ti_sysbios_heaps_HeapMem_init__I                                          
1001c2a5  ti_sysbios_heaps_HeapMem_isBlocking__E                                    
000004c4  ti_sysbios_heaps_HeapMem_reqAlign__C                                      
1001c105  ti_sysbios_heaps_HeapMem_restore__E                                       
1001bfcd  ti_sysbios_knl_Clock_Instance_finalize__E                                 
1001b50d  ti_sysbios_knl_Clock_Instance_init__E                                     
000005d0  ti_sysbios_knl_Clock_Module_State_clockQ__O                               
200007d0  ti_sysbios_knl_Clock_Module__root__V                                      
20000178  ti_sysbios_knl_Clock_Module__state__V                                     
1001bcc9  ti_sysbios_knl_Clock_Module_startup__E                                    
00000370  ti_sysbios_knl_Clock_Object__DESC__C                                      
00000288  ti_sysbios_knl_Clock_Object__PARAMS__C                                    
1001badd  ti_sysbios_knl_Clock_Object__delete__S                                    
1001bce9  ti_sysbios_knl_Clock_Object__destruct__S                                  
200007d8  ti_sysbios_knl_Clock_Object__table__V                                     
1001c185  ti_sysbios_knl_Clock_Params__init__S                                      
1001c2a9  ti_sysbios_knl_Clock_TimerProxy_Module__startupDone__S                    
UNDEFED   ti_sysbios_knl_Clock_TimerProxy_Module__startupDone__S__mangled__         
1001c095  ti_sysbios_knl_Clock_TimerProxy_getCurrentTick__E                         
1001c2ad  ti_sysbios_knl_Clock_TimerProxy_getExpiredTicks__E                        
1001c0a5  ti_sysbios_knl_Clock_TimerProxy_getMaxTicks__E                            
1001c2b1  ti_sysbios_knl_Clock_TimerProxy_getPeriod__E                              
1001c0b5  ti_sysbios_knl_Clock_TimerProxy_setNextTick__E                            
1001b795  ti_sysbios_knl_Clock_TimerProxy_startup__E                                
UNDEFED   ti_sysbios_knl_Clock_TimerProxy_startup__E__mangled__                     
1001ba21  ti_sysbios_knl_Clock_addI__E                                              
1001b579  ti_sysbios_knl_Clock_construct                                            
1001b3ed  ti_sysbios_knl_Clock_create                                               
1001c2b5  ti_sysbios_knl_Clock_delete                                               
1001c2b9  ti_sysbios_knl_Clock_destruct                                             
0000bce1  ti_sysbios_knl_Clock_doTick__I                                            
0000ac25  ti_sysbios_knl_Clock_getTicksUntilInterrupt__E                            
1001b6d9  ti_sysbios_knl_Clock_getTicks__E                                          
1001c191  ti_sysbios_knl_Clock_getTimerHandle__E                                    
0000c255  ti_sysbios_knl_Clock_isActive__E                                          
1001be67  ti_sysbios_knl_Clock_logTick__E                                           
1001c2bd  ti_sysbios_knl_Clock_removeI__E                                           
1001bebd  ti_sysbios_knl_Clock_scheduleNextTick__E                                  
000004c8  ti_sysbios_knl_Clock_serviceMargin__C                                     
1001c2c1  ti_sysbios_knl_Clock_setTimeout__E                                        
1001a719  ti_sysbios_knl_Clock_startI__E                                            
1001bfe3  ti_sysbios_knl_Clock_start__E                                             
0000b5c1  ti_sysbios_knl_Clock_stop__E                                              
00000510  ti_sysbios_knl_Clock_tickMode__C                                          
0001f3bc  ti_sysbios_knl_Clock_tickPeriod__C                                        
0001f3c0  ti_sysbios_knl_Clock_triggerClock__C                                      
0000a017  ti_sysbios_knl_Clock_triggerFunc__I                                       
1001a80d  ti_sysbios_knl_Clock_walkQueueDynamic__E                                  
00006f61  ti_sysbios_knl_Clock_workFuncDynamic__E                                   
1001a885  ti_sysbios_knl_Clock_workFunc__E                                          
200007f8  ti_sysbios_knl_Event_Module__root__V                                      
0001f3a0  ti_sysbios_knl_Idle_funcList__A                                           
00000478  ti_sysbios_knl_Idle_funcList__C                                           
1001c20b  ti_sysbios_knl_Idle_loop__E                                               
1001bd09  ti_sysbios_knl_Idle_run__E                                                
000005d4  ti_sysbios_knl_Mailbox_Instance_State_dataQue__O                          
000005d8  ti_sysbios_knl_Mailbox_Instance_State_dataSem__O                          
000005dc  ti_sysbios_knl_Mailbox_Instance_State_freeQue__O                          
000005e0  ti_sysbios_knl_Mailbox_Instance_State_freeSem__O                          
1001a9dd  ti_sysbios_knl_Mailbox_Instance_finalize__E                               
1001a001  ti_sysbios_knl_Mailbox_Instance_init__E                                   
20000800  ti_sysbios_knl_Mailbox_Module__root__V                                    
1001b251  ti_sysbios_knl_Mailbox_Module_startup__E                                  
00000390  ti_sysbios_knl_Mailbox_Object__DESC__C                                    
0000013c  ti_sysbios_knl_Mailbox_Object__PARAMS__C                                  
000004cc  ti_sysbios_knl_Mailbox_Object__count__C                                   
1001bd29  ti_sysbios_knl_Mailbox_Object__delete__S                                  
1001bed9  ti_sysbios_knl_Mailbox_Object__destruct__S                                
1001b89d  ti_sysbios_knl_Mailbox_Object__get__S                                     
000004d0  ti_sysbios_knl_Mailbox_Object__table__C                                   
1001c19d  ti_sysbios_knl_Mailbox_Params__init__S                                    
1001af81  ti_sysbios_knl_Mailbox_construct                                          
1001abdd  ti_sysbios_knl_Mailbox_create                                             
1001c2c5  ti_sysbios_knl_Mailbox_delete                                             
1001c2c9  ti_sysbios_knl_Mailbox_destruct                                           
1001a8fd  ti_sysbios_knl_Mailbox_pend__E                                            
1001b8c9  ti_sysbios_knl_Mailbox_postInit__I                                        
1001a591  ti_sysbios_knl_Mailbox_post__E                                            
1001c22b  ti_sysbios_knl_Queue_Instance_init__E                                     
20000808  ti_sysbios_knl_Queue_Module__root__V                                      
000003b0  ti_sysbios_knl_Queue_Object__DESC__C                                      
00000460  ti_sysbios_knl_Queue_Object__PARAMS__C                                    
000004d4  ti_sysbios_knl_Queue_Object__count__C                                     
1001bd49  ti_sysbios_knl_Queue_Object__delete__S                                    
1001bef5  ti_sysbios_knl_Queue_Object__destruct__S                                  
1001bd69  ti_sysbios_knl_Queue_Object__get__S                                       
000004d8  ti_sysbios_knl_Queue_Object__table__C                                     
1001b8f5  ti_sysbios_knl_Queue_construct                                            
1001b921  ti_sysbios_knl_Queue_create                                               
1001c2cd  ti_sysbios_knl_Queue_delete                                               
1001c1a9  ti_sysbios_knl_Queue_dequeue__E                                           
1001c2d1  ti_sysbios_knl_Queue_destruct                                             
1001c231  ti_sysbios_knl_Queue_elemClear__E                                         
1001c113  ti_sysbios_knl_Queue_empty__E                                             
1001c1b5  ti_sysbios_knl_Queue_enqueue__E                                           
1001bf11  ti_sysbios_knl_Queue_get__E                                               
1001c2d5  ti_sysbios_knl_Queue_head__E                                              
1001c2d9  ti_sysbios_knl_Queue_next__E                                              
1001bf2d  ti_sysbios_knl_Queue_put__E                                               
1001c121  ti_sysbios_knl_Queue_remove__E                                            
000005e4  ti_sysbios_knl_Semaphore_Instance_State_pendQ__O                          
1001c0c5  ti_sysbios_knl_Semaphore_Instance_finalize__E                             
1001bb01  ti_sysbios_knl_Semaphore_Instance_init__E                                 
20000810  ti_sysbios_knl_Semaphore_Module__root__V                                  
000003d0  ti_sysbios_knl_Semaphore_Object__DESC__C                                  
000002ac  ti_sysbios_knl_Semaphore_Object__PARAMS__C                                
1001bb25  ti_sysbios_knl_Semaphore_Object__delete__S                                
1001bd89  ti_sysbios_knl_Semaphore_Object__destruct__S                              
1001c1c1  ti_sysbios_knl_Semaphore_Params__init__S                                  
1001b709  ti_sysbios_knl_Semaphore_construct                                        
1001b5ad  ti_sysbios_knl_Semaphore_create                                           
1001c2dd  ti_sysbios_knl_Semaphore_delete                                           
1001c2e1  ti_sysbios_knl_Semaphore_destruct                                         
1001b94d  ti_sysbios_knl_Semaphore_pendTimeout__I                                   
1001a0cd  ti_sysbios_knl_Semaphore_pend__E                                          
1001ac41  ti_sysbios_knl_Semaphore_post__E                                          
0000bd0f  ti_sysbios_knl_Semaphore_reset__E                                         
1001bf9b  ti_sysbios_knl_Swi_Instance_finalize__E                                   
1001aca5  ti_sysbios_knl_Swi_Instance_init__E                                       
20000c48  ti_sysbios_knl_Swi_Module_State_0_readyQ__A                               
20000818  ti_sysbios_knl_Swi_Module__root__V                                        
200001c8  ti_sysbios_knl_Swi_Module__state__V                                       
1001c237  ti_sysbios_knl_Swi_Module_startup__E                                      
000003f0  ti_sysbios_knl_Swi_Object__DESC__C                                        
000001f4  ti_sysbios_knl_Swi_Object__PARAMS__C                                      
000004dc  ti_sysbios_knl_Swi_Object__count__C                                       
1001bda9  ti_sysbios_knl_Swi_Object__delete__S                                      
1001bf49  ti_sysbios_knl_Swi_Object__destruct__S                                    
1001b979  ti_sysbios_knl_Swi_Object__get__S                                         
000004e0  ti_sysbios_knl_Swi_Object__table__C                                       
20000c78  ti_sysbios_knl_Swi_Object__table__V                                       
1001c1cd  ti_sysbios_knl_Swi_Params__init__S                                        
1001b085  ti_sysbios_knl_Swi_construct                                              
1001ad05  ti_sysbios_knl_Swi_create                                                 
1001c2e5  ti_sysbios_knl_Swi_delete                                                 
1001c2e9  ti_sysbios_knl_Swi_destruct                                               
1001c0d5  ti_sysbios_knl_Swi_disable__E                                             
1001c0e5  ti_sysbios_knl_Swi_enabled__E                                             
0000c0ad  ti_sysbios_knl_Swi_getTrigger__E                                          
000004e4  ti_sysbios_knl_Swi_numPriorities__C                                       
0000bb81  ti_sysbios_knl_Swi_or__E                                                  
1001c2ed  ti_sysbios_knl_Swi_postInit__I                                            
1001b321  ti_sysbios_knl_Swi_post__E                                                
1001ad61  ti_sysbios_knl_Swi_restoreHwi__E                                          
1001b5e1  ti_sysbios_knl_Swi_restore__E                                             
1001b0d5  ti_sysbios_knl_Swi_runLoop__I                                             
1001afd9  ti_sysbios_knl_Swi_run__I                                                 
1001b031  ti_sysbios_knl_Swi_schedule__I                                            
1001c23d  ti_sysbios_knl_Swi_startup__E                                             
200022c0  ti_sysbios_knl_Task_Instance_State_0_stack__A                             
1001a4fd  ti_sysbios_knl_Task_Instance_finalize__E                                  
1001a25d  ti_sysbios_knl_Task_Instance_init__E                                      
20000828  ti_sysbios_knl_Task_Module_State_0_idleTask__A                            
20000ca8  ti_sysbios_knl_Task_Module_State_0_readyQ__A                              
000005e8  ti_sysbios_knl_Task_Module_State_inactiveQ__O                             
20000820  ti_sysbios_knl_Task_Module__root__V                                       
20000100  ti_sysbios_knl_Task_Module__state__V                                      
1001adbd  ti_sysbios_knl_Task_Module_startup__E                                     
00000410  ti_sysbios_knl_Task_Object__DESC__C                                       
00000100  ti_sysbios_knl_Task_Object__PARAMS__C                                     
000004e8  ti_sysbios_knl_Task_Object__count__C                                      
1001bdc9  ti_sysbios_knl_Task_Object__delete__S                                     
1001bf65  ti_sysbios_knl_Task_Object__destruct__S                                   
1001bde9  ti_sysbios_knl_Task_Object__get__S                                        
000004ec  ti_sysbios_knl_Task_Object__table__C                                      
20000b7c  ti_sysbios_knl_Task_Object__table__V                                      
1001c1d9  ti_sysbios_knl_Task_Params__init__S                                       
1001c2f1  ti_sysbios_knl_Task_SupportProxy_Module__startupDone__S                   
UNDEFED   ti_sysbios_knl_Task_SupportProxy_Module__startupDone__S__mangled__        
1001c2f5  ti_sysbios_knl_Task_SupportProxy_getStackAlignment__E                     
UNDEFED   ti_sysbios_knl_Task_SupportProxy_getStackAlignment__E__mangled__          
1001c2f9  ti_sysbios_knl_Task_SupportProxy_start__E                                 
UNDEFED   ti_sysbios_knl_Task_SupportProxy_start__E__mangled__                      
1001c2fd  ti_sysbios_knl_Task_SupportProxy_swap__E                                  
UNDEFED   ti_sysbios_knl_Task_SupportProxy_swap__E__mangled__                       
000004f0  ti_sysbios_knl_Task_allBlockedFunc__C                                     
1001b365  ti_sysbios_knl_Task_allBlockedFunction__I                                 
1001b615  ti_sysbios_knl_Task_blockI__E                                             
1001b125  ti_sysbios_knl_Task_construct                                             
1001ae19  ti_sysbios_knl_Task_create                                                
000004f4  ti_sysbios_knl_Task_defaultStackHeap__C                                   
000004f8  ti_sysbios_knl_Task_defaultStackSize__C                                   
1001c301  ti_sysbios_knl_Task_delete                                                
1001c305  ti_sysbios_knl_Task_destruct                                              
1001c0f5  ti_sysbios_knl_Task_disable__E                                            
1001c243  ti_sysbios_knl_Task_enable__E                                             
1001be09  ti_sysbios_knl_Task_enter__I                                              
1001b429  ti_sysbios_knl_Task_exit__E                                               
0000050e  ti_sysbios_knl_Task_initStackFlag__C                                      
000004fc  ti_sysbios_knl_Task_numConstructedTasks__C                                
1001a615  ti_sysbios_knl_Task_postInit__I                                           
1001b739  ti_sysbios_knl_Task_processVitalTaskFlag__I                               
1001be29  ti_sysbios_knl_Task_restoreHwi__E                                         
1001ba49  ti_sysbios_knl_Task_restore__E                                            
1001b175  ti_sysbios_knl_Task_schedule__I                                           
1001c1e5  ti_sysbios_knl_Task_self__E                                               
1001bf81  ti_sysbios_knl_Task_sleepTimeout__I                                       
1001a96d  ti_sysbios_knl_Task_sleep__E                                              
1001ae75  ti_sysbios_knl_Task_startCore__E                                          
1001c309  ti_sysbios_knl_Task_startup__E                                            
1001ca71  ti_sysbios_knl_Task_swapReturn                                            
1001b9a5  ti_sysbios_knl_Task_unblockI__E                                           
1001bfb5  ti_sysbios_knl_Task_unblock__E                                            
1001b3a9  ti_sysbios_knl_Task_yield__E                                              
00000590  ti_sysbios_rom_ROM_AONRTCChannelEnable                                    
00000594  ti_sysbios_rom_ROM_AONRTCCompareValueSet                                  
00000598  ti_sysbios_rom_ROM_AONRTCCurrentCompareValueGet                           
0000059c  ti_sysbios_rom_ROM_AONRTCEventClear                                       
000005a0  ti_sysbios_rom_ROM_ti_sysbios_family_arm_cc26xx_Timer_getCount64__E       
000005a4  ti_sysbios_rom_ROM_ti_sysbios_family_arm_cc26xx_Timer_getCurrentTick__E   
000005a8  ti_sysbios_rom_ROM_ti_sysbios_family_arm_cc26xx_Timer_getMaxTicks__E      
000005ac  ti_sysbios_rom_ROM_ti_sysbios_family_arm_cc26xx_Timer_initDevice__I       
000005b0  ti_sysbios_rom_ROM_ti_sysbios_family_arm_cc26xx_Timer_setNextTick__E      
000005b4  ti_sysbios_rom_ROM_ti_sysbios_family_arm_cc26xx_Timer_setThreshold__I     
000005b8  ti_sysbios_rom_ROM_ti_sysbios_family_arm_cc26xx_Timer_start__E            
000005bc  ti_sysbios_rom_ROM_ti_sysbios_family_arm_cc26xx_TimestampProvider_get32__E
000005c0  ti_sysbios_rom_ROM_xdc_runtime_Startup_getState__I                        
000005c4  ti_sysbios_rom_ROM_xdc_runtime_System_SupportProxy_abort__E               
000005c8  ti_sysbios_rom_ROM_xdc_runtime_System_SupportProxy_exit__E                
0000ad4f  ti_sysbios_rom_cortexm_cc26xx_CC26xx_badRomRevision__E                    
0000bb99  ti_sysbios_rom_cortexm_cc26xx_CC26xx_checkRevision__E                     
1001ca9b  ti_sysbios_rom_cortexm_cc26xx_CC26xx_getRevision__E                       
20002ec4  trngCC26XXObjects                                                         
0001f284  trngDriverTable                                                           
0001f1a4  txPowerTable                                                              
0001f27c  txPwrTbl                                                                  
20001498  uartLog_evBuf                                                             
20000de2  uartLog_evBufIsEmpty                                                      
20000de4  uartLog_evtNum                                                            
00007365  uartLog_flush                                                             
20000de1  uartLog_head                                                              
20002840  uartLog_outBuf                                                            
0000691d  uartLog_outputFxn                                                         
20000de0  uartLog_tail                                                              
0001f3a8  udmaHWAttrs                                                               
20002cac  udmaObjects                                                               
20000cd8  user0Cfg                                                                  
0001f122  validRangeUUID                                                            
00000524  xdc_runtime_Assert_E_assertFailed__C                                      
1001c5a9  xdc_runtime_Assert_raise__I                                               
1001c6ed  xdc_runtime_Core_assignLabel__I                                           
1001c5f1  xdc_runtime_Core_assignParams__I                                          
1001c639  xdc_runtime_Core_constructObject__I                                       
1001c405  xdc_runtime_Core_createObject__I                                          
1001c4f9  xdc_runtime_Core_deleteObject__I                                          
1001c7a1  xdc_runtime_Core_destructObject__I                                        
00000528  xdc_runtime_Error_E_memory__C                                             
1001c7b9  xdc_runtime_Error_check__E                                                
1001c841  xdc_runtime_Error_init__E                                                 
0000052c  xdc_runtime_Error_policyFxn__C                                            
1001c487  xdc_runtime_Error_policySpin__E                                           
0000058c  xdc_runtime_Error_policy__C                                               
1001c769  xdc_runtime_Error_raiseX__E                                               
1001c885  xdc_runtime_Gate_enterSystem__E                                           
1001c879  xdc_runtime_Gate_leaveSystem__E                                           
00000530  xdc_runtime_IGateProvider_Interface__BASE__C                              
00000534  xdc_runtime_IHeap_Interface__BASE__C                                      
0001f3c4  xdc_runtime_ILogger_Interface__BASE__C                                    
00000538  xdc_runtime_IModule_Interface__BASE__C                                    
0001f3c8  xdc_runtime_Log_L_error__C                                                
0001f3cc  xdc_runtime_Log_L_info__C                                                 
0001f3d0  xdc_runtime_Log_L_warning__C                                              
0000b7cd  xdc_runtime_LoggerCallback_Instance_init__E                               
0001f038  xdc_runtime_LoggerCallback_Module__FXNS__C                                
2000082c  xdc_runtime_LoggerCallback_Module__root__V                                
00009979  xdc_runtime_LoggerCallback_Module_startup__E                              
0001f214  xdc_runtime_LoggerCallback_Object__DESC__C                                
0001f234  xdc_runtime_LoggerCallback_Object__PARAMS__C                              
0001f3d4  xdc_runtime_LoggerCallback_Object__count__C                               
0000a9ad  xdc_runtime_LoggerCallback_Object__create__S                              
0000be1d  xdc_runtime_LoggerCallback_Object__get__S                                 
20000834  xdc_runtime_LoggerCallback_Object__table__V                               
0001f3d8  xdc_runtime_LoggerCallback_createInstFxn__C                               
0000c259  xdc_runtime_LoggerCallback_defaultCreate                                  
0000c12b  xdc_runtime_LoggerCallback_disable__E                                     
0000c135  xdc_runtime_LoggerCallback_enable__E                                      
0001f3dc  xdc_runtime_LoggerCallback_outputFxn__C                                   
0000b0c1  xdc_runtime_LoggerCallback_write0__E                                      
0000b0e9  xdc_runtime_LoggerCallback_write1__E                                      
0000ac51  xdc_runtime_LoggerCallback_write2__E                                      
0000a579  xdc_runtime_LoggerCallback_write4__E                                      
000096ad  xdc_runtime_LoggerCallback_write8__E                                      
UNDEFED   xdc_runtime_Main_Module_GateProxy_Handle__label__S                        
UNDEFED   xdc_runtime_Main_Module_GateProxy_Object__delete__S                       
UNDEFED   xdc_runtime_Main_Module_GateProxy_query__E                                
0000053c  xdc_runtime_Main_Module__diagsEnabled__C                                  
00000540  xdc_runtime_Main_Module__diagsIncluded__C                                 
00000544  xdc_runtime_Main_Module__diagsMask__C                                     
00000584  xdc_runtime_Main_Module__id__C                                            
0001f33a  xdc_runtime_Main_Module__loggerDefined__C                                 
0001f3e0  xdc_runtime_Main_Module__loggerFxn4__C                                    
0001f3e4  xdc_runtime_Main_Module__loggerFxn8__C                                    
0001f3e8  xdc_runtime_Main_Module__loggerObj__C                                     
1001bc89  xdc_runtime_Memory_HeapProxy_Handle__label__S                             
UNDEFED   xdc_runtime_Memory_HeapProxy_Handle__label__S__mangled__                  
1001bca9  xdc_runtime_Memory_HeapProxy_Object__delete__S                            
UNDEFED   xdc_runtime_Memory_HeapProxy_Object__delete__S__mangled__                 
1001c889  xdc_runtime_Memory_HeapProxy_alloc__E                                     
1001c88d  xdc_runtime_Memory_HeapProxy_free__E                                      
00000586  xdc_runtime_Memory_Module__id__C                                          
20000200  xdc_runtime_Memory_Module__state__V                                       
1001c489  xdc_runtime_Memory_alloc__E                                               
1001c84d  xdc_runtime_Memory_calloc__E                                              
00000548  xdc_runtime_Memory_defaultHeapInstance__C                                 
1001c801  xdc_runtime_Memory_free__E                                                
1001c859  xdc_runtime_Memory_getMaxDefaultTypeAlign__E                              
1001c785  xdc_runtime_Memory_valloc__E                                              
20000e00  xdc_runtime_Registry_Module__state__V                                     
0000b5e1  xdc_runtime_Registry_findById__E                                          
200001f0  xdc_runtime_Startup_Module__state__V                                      
00000001  xdc_runtime_Startup__EXECFXN__C                                           
00000001  xdc_runtime_Startup__RESETFXN__C                                          
0000054c  xdc_runtime_Startup_execImpl__C                                           
1001c559  xdc_runtime_Startup_exec__E                                               
0000bd33  xdc_runtime_Startup_exec__I                                               
0001f38c  xdc_runtime_Startup_firstFxns__A                                          
00000514  xdc_runtime_Startup_firstFxns__C                                          
000088ad  xdc_runtime_Startup_getState__I                                           
0000051c  xdc_runtime_Startup_lastFxns__C                                           
00000550  xdc_runtime_Startup_maxPasses__C                                          
0000c0b9  xdc_runtime_Startup_reset__I                                              
0000c0c5  xdc_runtime_Startup_rtsDone__E                                            
0001f2f4  xdc_runtime_Startup_sfxnRts__A                                            
00000554  xdc_runtime_Startup_sfxnRts__C                                            
0001f17c  xdc_runtime_Startup_sfxnTab__A                                            
00000558  xdc_runtime_Startup_sfxnTab__C                                            
0000055c  xdc_runtime_Startup_startModsFxn__C                                       
1001c30d  xdc_runtime_Startup_startMods__I                                          
00000560  xdc_runtime_SysCallback_abortFxn__C                                       
1001c811  xdc_runtime_SysCallback_abort__E                                          
0000b907  xdc_runtime_SysCallback_defaultAbort                                      
0000c265  xdc_runtime_SysCallback_defaultExit                                       
0000c267  xdc_runtime_SysCallback_defaultPutch                                      
0000c25d  xdc_runtime_SysCallback_defaultReady                                      
00000564  xdc_runtime_SysCallback_exitFxn__C                                        
1001c821  xdc_runtime_SysCallback_exit__E                                           
0001f3ec  xdc_runtime_SysCallback_putchFxn__C                                       
0000be2d  xdc_runtime_SysCallback_putch__E                                          
0001f3f0  xdc_runtime_SysCallback_readyFxn__C                                       
0000be3d  xdc_runtime_SysCallback_ready__E                                          
1001bbe9  xdc_runtime_System_Module_GateProxy_Handle__label__S                      
UNDEFED   xdc_runtime_System_Module_GateProxy_Handle__label__S__mangled__           
1001bc09  xdc_runtime_System_Module_GateProxy_Object__delete__S                     
UNDEFED   xdc_runtime_System_Module_GateProxy_Object__delete__S__mangled__          
1001c891  xdc_runtime_System_Module_GateProxy_enter__E                              
1001c895  xdc_runtime_System_Module_GateProxy_leave__E                              
1001c269  xdc_runtime_System_Module_GateProxy_query__E                              
UNDEFED   xdc_runtime_System_Module_GateProxy_query__E__mangled__                   
200001f8  xdc_runtime_System_Module__state__V                                       
1001c87f  xdc_runtime_System_Module_startup__E                                      
UNDEFED   xdc_runtime_System_SupportProxy_abort__E                                  
UNDEFED   xdc_runtime_System_SupportProxy_exit__E                                   
0000be2d  xdc_runtime_System_SupportProxy_putch__E                                  
0000be3d  xdc_runtime_System_SupportProxy_ready__E                                  
00000568  xdc_runtime_System_abortFxn__C                                            
1001c899  xdc_runtime_System_abortSpin__E                                           
0000966d  xdc_runtime_System_abortStd__E                                            
1001c749  xdc_runtime_System_abort__E                                               
1001c681  xdc_runtime_System_atexit__E                                              
0000204d  xdc_runtime_System_doPrint__I                                             
0000056c  xdc_runtime_System_exitFxn__C                                             
1001c89b  xdc_runtime_System_exitSpin__E                                            
00009675  xdc_runtime_System_exitStd__E                                             
1001c7d1  xdc_runtime_System_exit__E                                                
0001f3f4  xdc_runtime_System_extendFxn__C                                           
00007f51  xdc_runtime_System_formatNum__I                                           
00000570  xdc_runtime_System_maxAtexitHandlers__C                                   
000059a5  xdc_runtime_System_printfExtend__I                                        
1001c6b9  xdc_runtime_System_processAtExit__E                                       
0000ad25  xdc_runtime_System_putchar__I                                             
0000b8ed  xdc_runtime_System_snprintf__E                                            
0000c261  xdc_runtime_System_snprintf_va__F                                         
0000be4d  xdc_runtime_System_vsnprintf__E                                           
00000588  xdc_runtime_Text_charCnt__C                                               
0000c3b8  xdc_runtime_Text_charTab__A                                               
00000574  xdc_runtime_Text_charTab__C                                               
1001c71d  xdc_runtime_Text_cordText__E                                              
0000058a  xdc_runtime_Text_isLoaded__C                                              
00000578  xdc_runtime_Text_nameEmpty__C                                             
0000057c  xdc_runtime_Text_nameStatic__C                                            
00000580  xdc_runtime_Text_nameUnknown__C                                           
0001f37c  xdc_runtime_Text_nodeTab__A                                               
0001f3f8  xdc_runtime_Text_nodeTab__C                                               
0000a9e5  xdc_runtime_Text_printVisFxn__I                                           
00008909  xdc_runtime_Text_putLab__E                                                
00007121  xdc_runtime_Text_putMod__E                                                
00006e2d  xdc_runtime_Text_putSite__E                                               
0001f400  xdc_runtime_Text_registryModsLastId__C                                    
1001c7e9  xdc_runtime_Text_ropeText__E                                              
0001f402  xdc_runtime_Text_unnamedModsLastId__C                                     
0000927d  xdc_runtime_Text_visitRope2__I                                            
0001f3fc  xdc_runtime_Text_visitRopeFxn__C                                          
0000c13f  xdc_runtime_Text_visitRope__I                                             
000096f1  xdc_runtime_Text_xprintf__I                                               
1001c831  xdc_runtime_Timestamp_SupportProxy_get32__E                               
0000bf5b  xdc_runtime_Timestamp_SupportProxy_get32__E__mangled__                    
1001b9d1  xdc_runtime_Timestamp_SupportProxy_get64__E                               
UNDEFED   xdc_runtime_Timestamp_SupportProxy_get64__E__mangled__                    
1001c12f  xdc_runtime_Timestamp_SupportProxy_getFreq__E                             
UNDEFED   xdc_runtime_Timestamp_SupportProxy_getFreq__E__mangled__                  
1001c831  xdc_runtime_Timestamp_get32__E                                            
UNDEFED   xdc_runtime_Timestamp_get32__E                                            
1001b9d1  xdc_runtime_Timestamp_get64__E                                            
UNDEFED   xdc_runtime_Timestamp_get64__E                                            
1001c12f  xdc_runtime_Timestamp_getFreq__E                                          
UNDEFED   xdc_runtime_Timestamp_getFreq__E                                          
10015d19  zADD                                                                      
10015eb5  zADD32                                                                    
10015de9  zMACC32                                                                   
10015f0d  zMULT32                                                                   
10015bcd  zSET                                                                      
10015d5d  zSUB                                                                      
10015e69  zSUB32                                                                    


GLOBAL SYMBOLS: SORTED BY Symbol Address 

address   name                                                                      
-------   ----                                                                      
00000000  __ASM__                                                                   
00000000  __TI_static_base__                                                        
00000000  ti_sysbios_family_arm_m3_Hwi_resetVectors                                 
00000001  xdc_runtime_Startup__EXECFXN__C                                           
00000001  xdc_runtime_Startup__RESETFXN__C                                          
0000003d  LedService_AddService                                                     
00000081  __ISA__                                                                   
00000093  __PLAT__                                                                  
000000ba  __TARG__                                                                  
000000df  __TRDR__                                                                  
00000100  ti_sysbios_knl_Task_Object__PARAMS__C                                     
0000013c  ti_sysbios_knl_Mailbox_Object__PARAMS__C                                  
00000170  ti_sysbios_family_arm_m3_Hwi_Object__PARAMS__C                            
000001a0  ti_sysbios_hal_Hwi_Object__PARAMS__C                                      
000001cc  ti_sysbios_heaps_HeapMem_Module__FXNS__C                                  
000001f4  ti_sysbios_knl_Swi_Object__PARAMS__C                                      
0000021c  ti_sysbios_gates_GateHwi_Module__FXNS__C                                  
00000240  ti_sysbios_gates_GateMutex_Module__FXNS__C                                
00000264  ti_sysbios_heaps_HeapMem_Object__PARAMS__C                                
00000288  ti_sysbios_knl_Clock_Object__PARAMS__C                                    
000002ac  ti_sysbios_knl_Semaphore_Object__PARAMS__C                                
000002d0  ti_sysbios_family_arm_m3_Hwi_Object__DESC__C                              
000002f0  ti_sysbios_gates_GateHwi_Object__DESC__C                                  
00000310  ti_sysbios_gates_GateMutex_Object__DESC__C                                
00000330  ti_sysbios_hal_Hwi_Object__DESC__C                                        
00000350  ti_sysbios_heaps_HeapMem_Object__DESC__C                                  
00000370  ti_sysbios_knl_Clock_Object__DESC__C                                      
00000390  ti_sysbios_knl_Mailbox_Object__DESC__C                                    
000003b0  ti_sysbios_knl_Queue_Object__DESC__C                                      
000003d0  ti_sysbios_knl_Semaphore_Object__DESC__C                                  
000003f0  ti_sysbios_knl_Swi_Object__DESC__C                                        
00000400  __STACK_SIZE                                                              
00000410  ti_sysbios_knl_Task_Object__DESC__C                                       
00000430  ti_sysbios_gates_GateHwi_Object__PARAMS__C                                
00000448  ti_sysbios_gates_GateMutex_Object__PARAMS__C                              
00000460  ti_sysbios_knl_Queue_Object__PARAMS__C                                    
00000478  ti_sysbios_knl_Idle_funcList__C                                           
00000481  List_head                                                                 
00000484  ti_sysbios_family_arm_cc26xx_Timer_startupNeeded__C                       
00000488  ti_sysbios_family_arm_m3_Hwi_E_alreadyDefined__C                          
0000048c  ti_sysbios_family_arm_m3_Hwi_E_hwiLimitExceeded__C                        
00000490  ti_sysbios_family_arm_m3_Hwi_NUM_INTERRUPTS__C                            
00000494  ti_sysbios_family_arm_m3_Hwi_Object__count__C                             
00000498  ti_sysbios_family_arm_m3_Hwi_Object__table__C                             
0000049c  ti_sysbios_family_arm_m3_Hwi_ccr__C                                       
000004a0  ti_sysbios_family_arm_m3_Hwi_excHandlerFunc__C                            
000004a4  ti_sysbios_family_arm_m3_Hwi_nullIsrFunc__C                               
000004a8  ti_sysbios_family_arm_m3_Hwi_numSparseInterrupts__C                       
000004ac  ti_sysbios_family_arm_m3_Hwi_priGroup__C                                  
000004b0  ti_sysbios_family_arm_m3_TaskSupport_stackAlignment__C                    
000004b4  ti_sysbios_heaps_HeapMem_E_memory__C                                      
000004b8  ti_sysbios_heaps_HeapMem_Module__gateObj__C                               
000004bc  ti_sysbios_heaps_HeapMem_Object__count__C                                 
000004c0  ti_sysbios_heaps_HeapMem_Object__table__C                                 
000004c4  ti_sysbios_heaps_HeapMem_reqAlign__C                                      
000004c8  ti_sysbios_knl_Clock_serviceMargin__C                                     
000004cc  ti_sysbios_knl_Mailbox_Object__count__C                                   
000004d0  ti_sysbios_knl_Mailbox_Object__table__C                                   
000004d4  ti_sysbios_knl_Queue_Object__count__C                                     
000004d8  ti_sysbios_knl_Queue_Object__table__C                                     
000004dc  ti_sysbios_knl_Swi_Object__count__C                                       
000004e0  ti_sysbios_knl_Swi_Object__table__C                                       
000004e4  ti_sysbios_knl_Swi_numPriorities__C                                       
000004e8  ti_sysbios_knl_Task_Object__count__C                                      
000004ec  ti_sysbios_knl_Task_Object__table__C                                      
000004f0  ti_sysbios_knl_Task_allBlockedFunc__C                                     
000004f4  ti_sysbios_knl_Task_defaultStackHeap__C                                   
000004f8  ti_sysbios_knl_Task_defaultStackSize__C                                   
000004fc  ti_sysbios_knl_Task_numConstructedTasks__C                                
00000501  DefaultAssertCback                                                        
00000502  ti_sysbios_family_arm_cc26xx_Timer_Module__id__C                          
00000504  ti_sysbios_family_arm_cc26xx_TimestampProvider_useClockTimer__C           
00000506  ti_sysbios_family_arm_m3_Hwi_Module__id__C                                
00000508  ti_sysbios_gates_GateHwi_Module__id__C                                    
0000050a  ti_sysbios_gates_GateMutex_Module__id__C                                  
0000050c  ti_sysbios_heaps_HeapMem_Module__id__C                                    
0000050e  ti_sysbios_knl_Task_initStackFlag__C                                      
00000510  ti_sysbios_knl_Clock_tickMode__C                                          
00000514  xdc_runtime_Startup_firstFxns__C                                          
0000051c  xdc_runtime_Startup_lastFxns__C                                           
00000524  xdc_runtime_Assert_E_assertFailed__C                                      
00000528  xdc_runtime_Error_E_memory__C                                             
0000052c  xdc_runtime_Error_policyFxn__C                                            
00000530  xdc_runtime_IGateProvider_Interface__BASE__C                              
00000534  xdc_runtime_IHeap_Interface__BASE__C                                      
00000538  xdc_runtime_IModule_Interface__BASE__C                                    
0000053c  xdc_runtime_Main_Module__diagsEnabled__C                                  
00000540  xdc_runtime_Main_Module__diagsIncluded__C                                 
00000544  xdc_runtime_Main_Module__diagsMask__C                                     
00000548  xdc_runtime_Memory_defaultHeapInstance__C                                 
0000054c  xdc_runtime_Startup_execImpl__C                                           
00000550  xdc_runtime_Startup_maxPasses__C                                          
00000554  xdc_runtime_Startup_sfxnRts__C                                            
00000558  xdc_runtime_Startup_sfxnTab__C                                            
0000055c  xdc_runtime_Startup_startModsFxn__C                                       
00000560  xdc_runtime_SysCallback_abortFxn__C                                       
00000564  xdc_runtime_SysCallback_exitFxn__C                                        
00000568  xdc_runtime_System_abortFxn__C                                            
0000056c  xdc_runtime_System_exitFxn__C                                             
00000570  xdc_runtime_System_maxAtexitHandlers__C                                   
00000574  xdc_runtime_Text_charTab__C                                               
00000578  xdc_runtime_Text_nameEmpty__C                                             
0000057c  xdc_runtime_Text_nameStatic__C                                            
00000580  xdc_runtime_Text_nameUnknown__C                                           
00000584  xdc_runtime_Main_Module__id__C                                            
00000586  xdc_runtime_Memory_Module__id__C                                          
00000588  xdc_runtime_Text_charCnt__C                                               
0000058a  xdc_runtime_Text_isLoaded__C                                              
0000058c  xdc_runtime_Error_policy__C                                               
00000590  ti_sysbios_rom_ROM_AONRTCChannelEnable                                    
00000594  ti_sysbios_rom_ROM_AONRTCCompareValueSet                                  
00000598  ti_sysbios_rom_ROM_AONRTCCurrentCompareValueGet                           
0000059c  ti_sysbios_rom_ROM_AONRTCEventClear                                       
000005a0  ti_sysbios_rom_ROM_ti_sysbios_family_arm_cc26xx_Timer_getCount64__E       
000005a4  ti_sysbios_rom_ROM_ti_sysbios_family_arm_cc26xx_Timer_getCurrentTick__E   
000005a8  ti_sysbios_rom_ROM_ti_sysbios_family_arm_cc26xx_Timer_getMaxTicks__E      
000005ac  ti_sysbios_rom_ROM_ti_sysbios_family_arm_cc26xx_Timer_initDevice__I       
000005b0  ti_sysbios_rom_ROM_ti_sysbios_family_arm_cc26xx_Timer_setNextTick__E      
000005b4  ti_sysbios_rom_ROM_ti_sysbios_family_arm_cc26xx_Timer_setThreshold__I     
000005b8  ti_sysbios_rom_ROM_ti_sysbios_family_arm_cc26xx_Timer_start__E            
000005bc  ti_sysbios_rom_ROM_ti_sysbios_family_arm_cc26xx_TimestampProvider_get32__E
000005c0  ti_sysbios_rom_ROM_xdc_runtime_Startup_getState__I                        
000005c4  ti_sysbios_rom_ROM_xdc_runtime_System_SupportProxy_abort__E               
000005c8  ti_sysbios_rom_ROM_xdc_runtime_System_SupportProxy_exit__E                
000005cc  ti_sysbios_gates_GateMutex_Instance_State_sem__O                          
000005d0  ti_sysbios_knl_Clock_Module_State_clockQ__O                               
000005d4  ti_sysbios_knl_Mailbox_Instance_State_dataQue__O                          
000005d8  ti_sysbios_knl_Mailbox_Instance_State_dataSem__O                          
000005dc  ti_sysbios_knl_Mailbox_Instance_State_freeQue__O                          
000005e0  ti_sysbios_knl_Mailbox_Instance_State_freeSem__O                          
000005e4  ti_sysbios_knl_Semaphore_Instance_State_pendQ__O                          
000005e8  ti_sysbios_knl_Task_Module_State_inactiveQ__O                             
00000ec1  ButtonService_SetParameter                                                
0000197d  DataService_SetParameter                                                  
00001ced  GAPRole_SetParameter                                                      
0000204d  xdc_runtime_System_doPrint__I                                             
00002dc5  LedService_SetParameter                                                   
00003045  Power_sleep                                                               
0000326d  NOROM_SysCtrlSetRechargeBeforePowerDown                                   
00003471  __aeabi_uldivmod                                                          
00003a15  RF_cancelCmd                                                              
00003be1  PIN_init                                                                  
00003da5  GAPRole_GetParameter                                                      
00003f61  RF_postCmd                                                                
00004111  AMPERO_Meas02                                                             
000042bd  PowerCC26XX_doCalibrate                                                   
000045bd  DevInfo_SetParameter                                                      
000049e5  ButtonService_RegisterAppCBs                                              
00004b2d  SPICC26XXDMA_open                                                         
00004c75  DataService_RegisterAppCBs                                                
00004db5  LedService_RegisterAppCBs                                                 
00004ef5  NOROM_SetupAfterColdResetWakeupFromShutDownCfg3                           
0000514d  Power_init                                                                
00005499  ButtonService_AddService                                                  
000058a9  __aeabi_dmul                                                              
000059a5  xdc_runtime_System_printfExtend__I                                        
00005b91  SPICC26XXDMA_transferCancel                                               
00005c7d  DataService_AddService                                                    
00005d65  NOROM_SetupAfterColdResetWakeupFromShutDownCfg2                           
00005e49  scifInit                                                                  
00005ffd  Power_releaseDependency                                                   
000061a5  Power_setDependency                                                       
0000640d  RF_open                                                                   
000064d1  SPICC26XXDMA_transfer                                                     
00006595  PowerCC26XX_standbyPolicy                                                 
00006709  ADC_Data_Disp02                                                           
00006871  GATTServApp_ProcessCharCfg                                                
0000691d  uartLog_outputFxn                                                         
00006a71  NOROM_SetupTrimDevice                                                     
00006a71  ti_sysbios_family_arm_cc26xx_Boot_trimDevice                              
00006bb7  NOROM_RFCAdi3VcoLdoVoltageMode                                            
00006bb9  __TI_auto_init                                                            
00006c59  ICall_heapMalloc                                                          
00006d91  __aeabi_memcpy                                                            
00006d91  __aeabi_memcpy4                                                           
00006d91  __aeabi_memcpy8                                                           
00006d91  memcpy                                                                    
00006e2d  xdc_runtime_Text_putSite__E                                               
00006ec7  NOROM_RFCRTrim                                                            
00006f61  ti_sysbios_knl_Clock_workFuncDynamic__E                                   
00006ff9  PIN_open                                                                  
00007121  xdc_runtime_Text_putMod__E                                                
000071b5  ICall_createRemoteTasks                                                   
00007365  uartLog_flush                                                             
000073f5  NOROM_OSCHF_GetStartupTime                                                
000073f5  PowerCC26XX_getXoscStartupTime                                            
00007481  SPICC26XXDMA_control                                                      
0000750d  TRNGCC26XX_getNumber                                                      
00007625  scifResetTaskStructs                                                      
00007739  ICallPlatform_pwrUpdActivityCounter                                       
000077bd  ICall_heapInit                                                            
000078c1  RF_pendCmd                                                                
00007b39  __aeabi_memclr                                                            
00007b39  __aeabi_memclr4                                                           
00007b39  __aeabi_memclr8                                                           
00007b3b  __aeabi_memset                                                            
00007b3b  __aeabi_memset4                                                           
00007b3b  __aeabi_memset8                                                           
00007b41  memset                                                                    
00007bb5  NOROM_SetupAfterColdResetWakeupFromShutDownCfg1                           
00007ca5  PowerCC26XX_auxISR                                                        
00007e01  DAC_SPI_Init                                                              
00007ee1  NOROM_ChipInfo_GetHwRevision                                              
00007f51  xdc_runtime_System_formatNum__I                                           
00007fc1  NOROM_SetupGetTrimForAmpcompCtrl                                          
0000802d  PIN_add                                                                   
00008099  PowerCC26XX_calibrate                                                     
0000816f  __aeabi_idiv0                                                             
00008171  NOROM_SetupGetTrimForAnabypassValue1                                      
000081d9  NOROM_SysCtrl_DCDC_VoltageConditionalControl                              
00008241  RF_getCurrentTime                                                         
000082a9  RF_getInfo                                                                
00008311  bspSpiOpen                                                                
00008379  DAC_SPI_WriteReg                                                          
000084a5  ti_sysbios_family_arm_cc26xx_Timer_start__E                               
00008509  PowerCC26XX_RCOSC_clockFunc                                               
00008629  ICallPlatform_pwrRegisterNotify                                           
000086e1  NOROM_OSCHF_AttemptToSwitchToXosc                                         
0000873d  NOROM_SysCtrlAdjustRechargeAfterPowerDown                                 
00008799  PIN_remove                                                                
000087f5  UDMACC26XX_open                                                           
00008851  Util_convertBdAddr2Str                                                    
000088ad  xdc_runtime_Startup_getState__I                                           
00008909  xdc_runtime_Text_putLab__E                                                
00008965  SPICC26XXDMA_close                                                        
00008b21  PowerCC26XX_initiateCalibration                                           
00008b79  Util_constructClock                                                       
00008c29  scifInitIo                                                                
00008c81  GATTServApp_ProcessCCCWriteReq                                            
00008ecb  scCtrlReadyCallback                                                       
00008ecd  ADC_Sample                                                                
00008f1d  GAP_DeviceInit                                                            
00008f6d  ICall_init                                                                
0000900d  NOROM_SetupSetCacheModeAccordingToCcfgSetting                             
0000914d  NOROM_OSCClockSourceSet                                                   
00009231  copy_in                                                                   
0000927d  xdc_runtime_Text_visitRope2__I                                            
00009313  scTaskAlertCallback                                                       
00009315  GAP_UpdateAdvertisingData                                                 
0000935d  ICall_searchServiceEntity                                                 
000093a5  NOROM_ChipInfo_GetChipFamily                                              
000093ed  NOROM_DDI16BitfieldWrite                                                  
0000947d  RF_getRssi                                                                
000094c5  RF_runCmd                                                                 
00009555  __aeabi_d2iz                                                              
0000959d  AssertHandler                                                             
000095e1  ICallPlatform_pwrConfigACAction                                           
00009625  ResetISR                                                                  
00009625  _c_int00                                                                  
00009669  C$$EXIT                                                                   
0000966d  abort                                                                     
0000966d  xdc_runtime_System_abortStd__E                                            
00009675  exit                                                                      
00009675  xdc_runtime_System_exitStd__E                                             
000096ad  xdc_runtime_LoggerCallback_write8__E                                      
000096f1  xdc_runtime_Text_xprintf__I                                               
00009777  ti_sysbios_BIOS_linkedWithIncorrectBootLibrary__E                         
00009779  GAPBondMgr_LinkEst                                                        
000097b9  GAP_TerminateLinkReq                                                      
000097f9  GATTServApp_RegisterService                                               
00009879  NOROM_DDI16BitfieldRead                                                   
000098b9  __aeabi_uidiv                                                             
000098b9  __aeabi_uidivmod                                                          
00009979  xdc_runtime_LoggerCallback_Module_startup__E                              
000099f7  ti_sysbios_BIOS_nullFunc__I                                               
000099f9  GAPRole_createTask                                                        
00009a35  GAP_GetParamValue                                                         
00009a71  GATTServApp_InitCharCfg                                                   
00009ae9  NOROM_OSC_HPOSCRelativeFrequencyOffsetGet                                 
00009b25  NOROM_RFCSynthPowerDown                                                   
00009b61  PINCC26XX_getConfig                                                       
00009b9d  PIN_setOutputValue                                                        
00009bd9  ProjectZero_createTask                                                    
00009d41  GAPBondMgr_PasscodeRsp                                                    
00009d79  GAPBondMgr_SetParameter                                                   
00009db1  GAPRole_SendUpdateParam                                                   
00009de9  GATT_SendRsp                                                              
00009e59  PIN_setInterrupt                                                          
00009ec9  linkDB_NumConns                                                           
00009f01  osal_snv_read                                                             
00009f39  osal_snv_write                                                            
00009f71  scifOsalInit                                                              
00009fa9  ti_sysbios_family_arm_cc26xx_Timer_getCurrentTick__E                      
0000a017  ti_sysbios_knl_Clock_triggerFunc__I                                       
0000a057  UDMACC26XX_close                                                          
0000a1d1  GAP_SetParamValue                                                         
0000a2a1  NOROM_OSCHF_SwitchToRcOscTurnOffXosc                                      
0000a2d5  NOROM_TRNGConfigure                                                       
0000a309  PIN_setConfig                                                             
0000a33d  PowerCC26XX_isStableXOSC_HF                                               
0000a3a5  TRNGCC26XX_isParamValid                                                   
0000a3d9  Util_restartClock                                                         
0000a511  scifReinitIo                                                              
0000a545  scifUninitIo                                                              
0000a579  xdc_runtime_LoggerCallback_write4__E                                      
0000a643  ti_sysbios_family_arm_cc26xx_Timer_setNextTick__E                         
0000a675  ICall_freeImpl                                                            
0000a675  ICall_heapFree                                                            
0000a6d5  NOROM_SetupSetAonRtcSubSecInc                                             
0000a705  Power_releaseConstraint                                                   
0000a735  Power_setConstraint                                                       
0000a795  SPI_open                                                                  
0000a7c5  bspSpiWrite                                                               
0000a855  main                                                                      
0000a88d  scifStartRtcTicksNow                                                      
0000a8bd  ti_sysbios_BIOS_atExitFunc__I                                             
0000a8f5  ti_sysbios_BIOS_startFunc__I                                              
0000a94d  ti_sysbios_family_arm_cc26xx_Timer_initDevice__I                          
0000a97d  ti_sysbios_family_arm_cc26xx_Timer_setThreshold__I                        
0000a9ad  xdc_runtime_LoggerCallback_Object__create__S                              
0000a9e5  xdc_runtime_Text_printVisFxn__I                                           
0000aa15  GAPRole_TerminateConnection                                               
0000ab49  NOROM_DDI32RegWrite                                                       
0000ab75  NOROM_SetupGetTrimForRadcExtCfg                                           
0000aba1  PINCC26XX_setMux                                                          
0000abf9  scifStartRtcTicks                                                         
0000ac25  ti_sysbios_knl_Clock_getTicksUntilInterrupt__E                            
0000ac51  xdc_runtime_LoggerCallback_write2__E                                      
0000ad25  xdc_runtime_System_putchar__I                                             
0000ad4f  ti_sysbios_rom_cortexm_cc26xx_CC26xx_badRomRevision__E                    
0000ad51  ADC_Init                                                                  
0000ad79  GAPBondMgr_LinkTerm                                                       
0000ada1  GAPBondMgr_Register                                                       
0000af09  NOROM_AONBatMonTemperatureGetDegC                                         
0000af31  PowerCC26XX_switchXOSC_HF                                                 
0000af59  Power_registerNotify                                                      
0000afa9  SafeHapiVoid                                                              
0000afd1  TRNGCC26XX_init                                                           
0000b071  scifStopRtcTicks                                                          
0000b099  ti_sysbios_family_arm_cc26xx_Timer_getMaxTicks__E                         
0000b0c1  xdc_runtime_LoggerCallback_write0__E                                      
0000b0e9  xdc_runtime_LoggerCallback_write1__E                                      
0000b111  GATTServApp_WriteCharCfg                                                  
0000b15d  List_put                                                                  
0000b1a9  GAPRole_StartDevice                                                       
0000b1cd  GATT_bm_alloc                                                             
0000b1f1  HCI_EXT_ConnEventNoticeCmd                                                
0000b215  PINCC26XX_getPinCount                                                     
0000b2a5  ti_sysbios_BIOS_registerRTSLock__I                                        
0000b2c9  ti_sysbios_BIOS_removeRTSLock__I                                          
0000b311  GATTServApp_FindAttr                                                      
0000b333  memcmp                                                                    
0000b4b9  NOROM_RFCDoorbellSendTo                                                   
0000b4d9  NOROM_RFCRfTrimRead                                                       
0000b4f9  NOROM_SetupGetTrimForXoscHfCtl                                            
0000b519  Power_unregisterNotify                                                    
0000b539  TRNGCC26XX_open                                                           
0000b579  __aeabi_ui2d                                                              
0000b599  ti_sysbios_BIOS_rtsLock__I                                                
0000b5c1  ti_sysbios_knl_Clock_stop__E                                              
0000b5e1  xdc_runtime_Registry_findById__E                                          
0000b601  GATT_Notification                                                         
0000b63d  PIN_close                                                                 
0000b65b  Power_getTransitionLatency                                                
0000b6b5  GATT_bm_free                                                              
0000b6ed  NOROM_OSCClockSourceGet                                                   
0000b709  NOROM_SetupGetTrimForAmpcompTh2                                           
0000b725  NOROM_SetupGetTrimForRcOscLfRtuneCtuneTrim                                
0000b795  ti_sysbios_family_arm_cc26xx_Timer_dynamicStub__E                         
0000b7b1  ti_sysbios_family_arm_m3_Hwi_clearInterrupt__E                            
0000b7b1  ti_sysbios_hal_Hwi_HwiProxy_clearInterrupt__E                             
0000b7b1  ti_sysbios_hal_Hwi_clearInterrupt__E                                      
0000b7cd  xdc_runtime_LoggerCallback_Instance_init__E                               
0000b7e9  ICallPlatform_pwrDispense                                                 
0000b803  ICallPlatform_pwrRequire                                                  
0000b81d  ICall_enterCSImpl                                                         
0000b86b  List_remove                                                               
0000b8ed  xdc_runtime_System_snprintf__E                                            
0000b907  xdc_runtime_SysCallback_defaultAbort                                      
0000b909  GGS_SetParameter                                                          
0000b951  NOROM_AONRTCCurrentCompareValueGet                                        
0000b969  NOROM_ChipInfo_GetPackageType                                             
0000b981  NOROM_OSCHF_TurnOnXosc                                                    
0000b999  NOROM_RFCCpeIntGetAndClear                                                
0000b9b1  NOROM_SetupGetTrimForAdcShModeEn                                          
0000b9c9  NOROM_SetupGetTrimForAdcShVbufEn                                          
0000b9e1  NOROM_SetupGetTrimForAmpcompTh1                                           
0000b9f9  NOROM_SetupGetTrimForDblrLoopFilterResetVoltage                           
0000ba11  NOROM_SetupGetTrimForRcOscLfIBiasTrim                                     
0000ba29  NOROM_SetupGetTrimForXoscLfRegulatorAndCmirrwrRatio                       
0000ba41  PIN_getConfig                                                             
0000ba59  Power_idleFunc                                                            
0000ba89  RF_runDirectCmd                                                           
0000baa1  RF_runImmediateCmd                                                        
0000bad1  gapRole_clockHandler                                                      
0000bae9  openTRNG                                                                  
0000bb01  _args_main                                                                
0000bb19  __aeabi_lmul                                                              
0000bb31  scifWaitOnNbl                                                             
0000bb61  ti_sysbios_BIOS_rtsUnlock__I                                              
0000bb81  ti_sysbios_knl_Swi_or__E                                                  
0000bb99  ti_sysbios_rom_cortexm_cc26xx_CC26xx_checkRevision__E                     
0000bbb1  driverTable_fnSpinlock                                                    
0000bbc7  ti_sysbios_BIOS_exitFunc__I                                               
0000bbdd  DevInfo_AddService                                                        
0000bbf1  ICall_leaveCSImpl                                                         
0000bc05  NOROM_AONRTCCurrent64BitValueGet                                          
0000bc19  NOROM_ThisCodeIsBuiltForCC26xxHwRev22AndLater_HaltIfViolated              
0000bc2d  PIN_getInputValue                                                         
0000bc41  PIN_getOutputValue                                                        
0000bc69  RF_Params_init                                                            
0000bc7d  SPI_Params_init                                                           
0000bca5  _register_unlock                                                          
0000bcab  _register_lock                                                            
0000bcb3  _nop                                                                      
0000bcb9  strlen                                                                    
0000bce1  ti_sysbios_knl_Clock_doTick__I                                            
0000bcfd  RF_getCmdOp                                                               
0000bd0f  ti_sysbios_knl_Semaphore_reset__E                                         
0000bd33  xdc_runtime_Startup_exec__I                                               
0000bd5d  GAP_EndDiscoverable                                                       
0000bd6d  GAP_UpdateLinkParamReq                                                    
0000bd7d  GAP_UpdateLinkParamReqReply                                               
0000bd8d  GATTServApp_ReadCharCfg                                                   
0000bd9d  ICallPlatform_pwrGetXOSCStartupTime                                       
0000bdcd  NOROM_RFCRfTrimSet                                                        
0000bddd  NOROM_SetupGetTrimForXoscHfFastStart                                      
0000bded  NOROM_SetupGetTrimForXoscHfIbiastherm                                     
0000bdfd  Util_isActive                                                             
0000be0d  ti_sysbios_family_arm_m3_Hwi_post__E                                      
0000be0d  ti_sysbios_hal_Hwi_HwiProxy_post__E                                       
0000be0d  ti_sysbios_hal_Hwi_post__E                                                
0000be1d  xdc_runtime_LoggerCallback_Object__get__S                                 
0000be2d  xdc_runtime_SysCallback_putch__E                                          
0000be2d  xdc_runtime_System_SupportProxy_putch__E                                  
0000be3d  xdc_runtime_SysCallback_ready__E                                          
0000be3d  xdc_runtime_System_SupportProxy_ready__E                                  
0000be4d  xdc_runtime_System_vsnprintf__E                                           
0000be5d  ICallPlatform_pwrGetTransitionState                                       
0000be6b  ICallPlatform_pwrIsStableXOSCHF                                           
0000bec1  NOROM_SetupSignExtendVddrTrimValue                                        
0000becf  NOROM_VIMSModeGet                                                         
0000bedd  SPICC26XXDMA_init                                                         
0000beeb  __TI_decompress_none                                                      
0000bf5b  ti_sysbios_family_arm_cc26xx_TimestampProvider_get32__E                   
0000bf5b  xdc_runtime_Timestamp_SupportProxy_get32__E__mangled__                    
0000bf69  GAP_MakeDiscoverable                                                      
0000bf75  GAP_TerminateAuth                                                         
0000bf81  GATT_Indication                                                           
0000bfd9  NOROM_CPUcpsid                                                            
0000bfe5  NOROM_CPUcpsie                                                            
0000bff1  PIN_registerIntCb                                                         
0000bffd  Power_getConstraintMask                                                   
0000c009  Power_getDependencyCount                                                  
0000c015  Power_getTransitionState                                                  
0000c021  RegisterAssertCback                                                       
0000c02d  __TI_zero_init                                                            
0000c069  scifOsalRegisterCtrlReadyCallback                                         
0000c075  scifOsalRegisterTaskAlertCallback                                         
0000c08d  ti_sysbios_BIOS_getThreadType__E                                          
0000c099  ti_sysbios_hal_Hwi_Params__init__S                                        
0000c0ad  ti_sysbios_knl_Swi_getTrigger__E                                          
0000c0b9  xdc_runtime_Startup_reset__I                                              
0000c0c5  xdc_runtime_Startup_rtsDone__E                                            
0000c0d1  ICallPlatform_pwrSwitchXOSCHF                                             
0000c0ef  List_empty                                                                
0000c0f9  SPI_transfer                                                              
0000c103  UART_write                                                                
0000c10d  UDMACC26XX_hwiIntFxn                                                      
0000c12b  xdc_runtime_LoggerCallback_disable__E                                     
0000c135  xdc_runtime_LoggerCallback_enable__E                                      
0000c13f  xdc_runtime_Text_visitRope__I                                             
0000c149  GAP_RegisterForMsgs                                                       
0000c151  GATT_RegisterForMsgs                                                      
0000c159  GGS_AddService                                                            
0000c161  RF_flushCmd                                                               
0000c181  GATTServApp_AddService                                                    
0000c187  ICall_mallocImpl                                                          
0000c18d  NOROM_CPUdelay                                                            
0000c193  __xdc__init                                                               
0000c199  calcDacDataLSB                                                            
0000c1a5  __TI_decompress_rle24                                                     
0000c22b  scifStartTasksNbl                                                         
0000c231  scifStopTasksNbl                                                          
0000c237  ti_sysbios_family_arm_m3_Hwi_setFunc__E                                   
0000c23d  HwiP_disable                                                              
0000c241  List_next                                                                 
0000c249  Util_stopClock                                                            
0000c251  ti_sysbios_family_arm_cc26xx_Timer_getCount64__E                          
0000c255  ti_sysbios_knl_Clock_isActive__E                                          
0000c259  xdc_runtime_LoggerCallback_defaultCreate                                  
0000c25d  xdc_runtime_SysCallback_defaultReady                                      
0000c261  xdc_runtime_System_snprintf_va__F                                         
0000c265  xdc_runtime_SysCallback_defaultExit                                       
0000c267  xdc_runtime_SysCallback_defaultPutch                                      
0000c3b8  xdc_runtime_Text_charTab__A                                               
0000deac  SPICC26XXDMA_fxnTable                                                     
0000df00  resourceDB                                                                
0000df4c  rfDriverTable                                                             
0000dfe0  SPI_defaultParams                                                         
0000e0ea  __checksum_value_CommonROM                                                
0001f000  spiCC26XXDMAHWAttrs                                                       
0001f038  xdc_runtime_LoggerCallback_Module__FXNS__C                                
0001f06c  ButtonServiceUUID                                                         
0001f07c  bs_BUTTON0UUID                                                            
0001f08c  bs_BUTTON1UUID                                                            
0001f09c  DataServiceUUID                                                           
0001f0ac  ds_StringUUID                                                             
0001f0bc  ds_StreamUUID                                                             
0001f0cc  LedServiceUUID                                                            
0001f0dc  ls_LED0UUID                                                               
0001f0ec  ls_LED1UUID                                                               
0001f0fc  gapServiceUUID                                                            
0001f0fe  gattServiceUUID                                                           
0001f100  primaryServiceUUID                                                        
0001f102  secondaryServiceUUID                                                      
0001f104  includeUUID                                                               
0001f106  characterUUID                                                             
0001f108  charExtPropsUUID                                                          
0001f10a  charUserDescUUID                                                          
0001f10c  clientCharCfgUUID                                                         
0001f10e  servCharCfgUUID                                                           
0001f110  charFormatUUID                                                            
0001f112  charAggFormatUUID                                                         
0001f114  deviceNameUUID                                                            
0001f116  appearanceUUID                                                            
0001f118  periPrivacyFlagUUID                                                       
0001f11a  reconnectAddrUUID                                                         
0001f11c  periConnParamUUID                                                         
0001f11e  centAddrResUUID                                                           
0001f120  serviceChangedUUID                                                        
0001f122  validRangeUUID                                                            
0001f124  extReportRefUUID                                                          
0001f126  reportRefUUID                                                             
0001f128  BoardGpioInitTable                                                        
0001f17c  xdc_runtime_Startup_sfxnTab__A                                            
0001f1a4  txPowerTable                                                              
0001f1cc  SPI_config                                                                
0001f1f0  scifDriverSetup                                                           
0001f214  xdc_runtime_LoggerCallback_Object__DESC__C                                
0001f234  xdc_runtime_LoggerCallback_Object__PARAMS__C                              
0001f268  devInfoServUUID                                                           
0001f26a  devInfoSystemIdUUID                                                       
0001f26c  devInfoModelNumberUUID                                                    
0001f26e  devInfoSerialNumberUUID                                                   
0001f270  devInfoFirmwareRevUUID                                                    
0001f272  devInfoHardwareRevUUID                                                    
0001f274  devInfoSoftwareRevUUID                                                    
0001f276  devInfoMfrNameUUID                                                        
0001f278  devInfo11073CertUUID                                                      
0001f27a  devInfoPnpIdUUID                                                          
0001f27c  txPwrTbl                                                                  
0001f284  trngDriverTable                                                           
0001f298  Button_ServiceCBs                                                         
0001f2ac  Data_ServiceCBs                                                           
0001f2c0  devInfoCBs                                                                
0001f2d4  LED_ServiceCBs                                                            
0001f2f4  xdc_runtime_Startup_sfxnRts__A                                            
0001f33a  xdc_runtime_Main_Module__loggerDefined__C                                 
0001f33c  PowerCC26XX_config                                                        
0001f34c  TRNGCC26XX_config                                                         
0001f35c  UDMACC26XX_config                                                         
0001f37c  xdc_runtime_Text_nodeTab__A                                               
0001f38c  xdc_runtime_Startup_firstFxns__A                                          
0001f398  PINCC26XX_hwAttrs                                                         
0001f3a0  ti_sysbios_knl_Idle_funcList__A                                           
0001f3a8  udmaHWAttrs                                                               
0001f3b0  RFCC26XX_hwAttrs                                                          
0001f3b4  TRNGCC26XXHWAttrs                                                         
0001f3bc  ti_sysbios_knl_Clock_tickPeriod__C                                        
0001f3c0  ti_sysbios_knl_Clock_triggerClock__C                                      
0001f3c4  xdc_runtime_ILogger_Interface__BASE__C                                    
0001f3c8  xdc_runtime_Log_L_error__C                                                
0001f3cc  xdc_runtime_Log_L_info__C                                                 
0001f3d0  xdc_runtime_Log_L_warning__C                                              
0001f3d4  xdc_runtime_LoggerCallback_Object__count__C                               
0001f3d8  xdc_runtime_LoggerCallback_createInstFxn__C                               
0001f3dc  xdc_runtime_LoggerCallback_outputFxn__C                                   
0001f3e0  xdc_runtime_Main_Module__loggerFxn4__C                                    
0001f3e4  xdc_runtime_Main_Module__loggerFxn8__C                                    
0001f3e8  xdc_runtime_Main_Module__loggerObj__C                                     
0001f3ec  xdc_runtime_SysCallback_putchFxn__C                                       
0001f3f0  xdc_runtime_SysCallback_readyFxn__C                                       
0001f3f4  xdc_runtime_System_extendFxn__C                                           
0001f3f8  xdc_runtime_Text_nodeTab__C                                               
0001f3fc  xdc_runtime_Text_visitRopeFxn__C                                          
0001f400  xdc_runtime_Text_registryModsLastId__C                                    
0001f402  xdc_runtime_Text_unnamedModsLastId__C                                     
0001f404  __c_args__                                                                
0001fb28  __TI_Handler_Table_Base                                                   
0001fb34  __TI_Handler_Table_Limit                                                  
0001fba0  __TI_CINIT_Base                                                           
0001fc20  __TI_CINIT_Limit                                                          
0001ffa8  __ccfg                                                                    
10014c00  A1_rw                                                                     
10014c00  __checksum_begin_CommonROM                                                
10014c01  COMMON_ROM_BASE_ADDR                                                      
10014c04  P1_ro                                                                     
10014c05  SCALARMUL_init                                                            
10014ced  SCALARMUL_core                                                            
10015019  SCALARMUL_final                                                           
100150e5  SCALARMUL                                                                 
10015101  SAVEPOINT                                                                 
10015141  GETBIT                                                                    
10015155  GETDIGIT                                                                  
100151a5  GETDIGITL2R                                                               
10015215  SelectReg                                                                 
10015229  ATOMICPATTERN                                                             
100154f5  JACADD                                                                    
1001568d  INVERT                                                                    
10015821  SQUAREMULTIPLYWORD                                                        
1001588c  LUTOPCODE                                                                 
10015894  LUTOPSIGN                                                                 
100158ac  LUTC                                                                      
100158c4  LUTSE                                                                     
100158dc  LUTINCI                                                                   
100158f4  LUTJ                                                                      
1001596c  LUTSTATE                                                                  
100159a9  IMPORTLENGTH                                                              
100159ad  IMPORTMODULUS                                                             
100159d1  IMPORTOPERAND                                                             
10015a11  EXPORTOPERAND                                                             
10015a35  IMPORTDATA                                                                
10015a51  SETOPERAND                                                                
10015a6d  COPY                                                                      
10015a85  ZERO                                                                      
10015a91  SETWORD                                                                   
10015a9d  mSET                                                                      
10015bcd  zSET                                                                      
10015bd5  mINVK                                                                     
10015d19  zADD                                                                      
10015d5d  zSUB                                                                      
10015de9  zMACC32                                                                   
10015e69  zSUB32                                                                    
10015eb5  zADD32                                                                    
10015f0d  zMULT32                                                                   
10015f81  mMULT                                                                     
10016551  mADD                                                                      
1001664d  mSUB                                                                      
10016749  mOUT                                                                      
10016975  ssp_KeyInit_Sw                                                            
10016979  sspAesEncrypt_Sw                                                          
10016985  sspKeyExpansion_Sw                                                        
10016a99  sspAesEncryptKeyExp_Sw                                                    
10016af5  sspAesEncryptBasic_Sw                                                     
10016b79  RoundKey_Sw                                                               
10016c29  AddRoundKeySubBytes_Sw                                                    
10016c45  ShiftRows_Sw                                                              
10016c79  MixColumns_Sw                                                             
10016d05  FFMult_Sw                                                                 
10016d29  sspAesDecrypt_Sw                                                          
10016da1  InvAddRoundKey_Sw                                                         
10016dc9  InvRoundKey_Sw                                                            
10016e8d  InvSubBytes_Sw                                                            
10016ea1  InvShiftRows_Sw                                                           
10016ed5  InvMixColumns_Sw                                                          
10016f58  FFMult2                                                                   
10017058  FFMult3                                                                   
10017158  RCon                                                                      
10017164  Sbox                                                                      
10017264  InvSbox                                                                   
10017365  SSP_CCM_Auth_Sw                                                           
100174fd  SSP_CCM_Encrypt_Sw                                                        
100175ed  SSP_CTR_Encrypt_Sw                                                        
1001767d  SSP_CCM_Decrypt_Sw                                                        
10017771  SSP_CTR_Decrypt_Sw                                                        
10017839  SSP_CCM_InvAuth_Sw                                                        
10017895  SSP_CCM_Auth_Encrypt_Sw                                                   
100178f5  SSP_CCM_InvAuth_Decrypt_Sw                                                
10017959  ECC_allocWorkzone                                                         
10017961  ECC_setWin                                                                
10017969  ECDSA_sign                                                                
10017b01  ECDSA_verif                                                               
10017dbd  eccRom_genKeys                                                            
10017ded  eccRom_genSharedSecret                                                    
10017e39  SHA256_updateW                                                            
10017e75  SHA256_round                                                              
10017ef1  SHA256_nextState                                                          
10017f49  SHA256_saveBuffer                                                         
10017ffd  SHA256_init                                                               
10018019  SHA256_process                                                            
10018089  SHA256_final                                                              
10018129  SHA256_full                                                               
100182ad  RFHAL_InitRfHal                                                           
10018315  RFHAL_AllocRatChan                                                        
1001833d  RFHAL_FreeRatChan                                                         
10018369  RFHAL_MapRatChansToInt                                                    
10018391  RFHAL_RegisterRatChanCallback                                             
100183b9  RFHAL_InitDataQueue                                                       
100183c5  RFHAL_QueueRFDataEntries                                                  
10018415  RFHAL_AddTxDataEntry                                                      
10018485  RFHAL_FreeNextTxDataEntry                                                 
100184a9  RFHAL_AllocDataEntryQueue                                                 
100184c5  RFHAL_FreeDataEntryQueue                                                  
100184cd  RFHAL_GetNextDataEntry                                                    
100184d1  RFHAL_GetTempDataEntry                                                    
100184d5  RFHAL_NextDataEntryDone                                                   
100184f9  RFHAL_AllocDataEntry                                                      
10018549  RFHAL_FreeDataEntry                                                       
10018551  RFHAL_BuildRingBuffer                                                     
100185e1  RFHAL_BuildDataEntryRingBuffer                                            
10018669  RFHAL_BuildLinkedBuffer                                                   
10018755  MB_Init                                                                   
10018799  MB_EnableInts                                                             
100187f5  MB_DisableInts                                                            
10018825  MB_ClearInts                                                              
10018835  MB_EnableHWInts                                                           
10018865  MB_SendCommand                                                            
100188a5  MB_SendCommandSynch                                                       
10018935  MB_ReadMailboxStatus                                                      
1001893d  MB_RegisterIsrCback                                                       
10018945  MB_FwDebugDump                                                            
10018949  mbCmdAckIsr                                                               
1001895d  mbCpe0Isr                                                                 
10018985  mbCpe1Isr                                                                 
100189e5  mbHwIsr                                                                   
10018a19  AesCcm_authEncrypt_Sw                                                     
10018a35  AesCcm_decryptAuth_Sw                                                     
10018a99  Aes_encrypt_Sw                                                            
10018ac5  Aes_decrypt_Sw                                                            
10018b09  AesCcm_getNumBlocks_Sw                                                    
10018b0c  NIST_Curve_P256_p                                                         
10018b30  NIST_Curve_P256_r                                                         
10018b54  NIST_Curve_P256_a                                                         
10018b78  NIST_Curve_P256_b                                                         
10018b9c  NIST_Curve_P256_Gx                                                        
10018bc0  NIST_Curve_P256_Gy                                                        
10018ced  __exit                                                                    
10018d6c  Fill1                                                                     
10019ffc  A3_rw                                                                     
10019ffd  __checksum_end_CommonROM                                                  
10019ffe  A2_rw                                                                     
10019ffe  P1_ro_2                                                                   
10019ffe  __checksum_CommonROM                                                      
1001a001  ti_sysbios_knl_Mailbox_Instance_init__E                                   
1001a0cd  ti_sysbios_knl_Semaphore_pend__E                                          
1001a199  ti_sysbios_heaps_HeapMem_alloc__E                                         
1001a25d  ti_sysbios_knl_Task_Instance_init__E                                      
1001a319  ti_sysbios_family_arm_m3_Hwi_postInit__I                                  
1001a3c9  ti_sysbios_family_arm_m3_Hwi_Instance_init__E                             
1001a469  ti_sysbios_family_arm_cc26xx_Timer_periodicStub__E                        
1001a4fd  ti_sysbios_knl_Task_Instance_finalize__E                                  
1001a591  ti_sysbios_knl_Mailbox_post__E                                            
1001a615  ti_sysbios_knl_Task_postInit__I                                           
1001a699  ti_sysbios_family_arm_m3_Hwi_initNVIC__E                                  
1001a719  ti_sysbios_knl_Clock_startI__E                                            
1001a795  ti_sysbios_heaps_HeapMem_free__E                                          
1001a80d  ti_sysbios_knl_Clock_walkQueueDynamic__E                                  
1001a885  ti_sysbios_knl_Clock_workFunc__E                                          
1001a8fd  ti_sysbios_knl_Mailbox_pend__E                                            
1001a96d  ti_sysbios_knl_Task_sleep__E                                              
1001a9dd  ti_sysbios_knl_Mailbox_Instance_finalize__E                               
1001aa49  ti_sysbios_family_arm_m3_Hwi_dispatchC__I                                 
1001aab1  ti_sysbios_family_arm_m3_Hwi_Object__create__S                            
1001ab15  ti_sysbios_family_arm_m3_Hwi_create                                       
1001ab79  ti_sysbios_hal_Hwi_create                                                 
1001abdd  ti_sysbios_knl_Mailbox_create                                             
1001ac41  ti_sysbios_knl_Semaphore_post__E                                          
1001aca5  ti_sysbios_knl_Swi_Instance_init__E                                       
1001ad05  ti_sysbios_knl_Swi_create                                                 
1001ad61  ti_sysbios_knl_Swi_restoreHwi__E                                          
1001adbd  ti_sysbios_knl_Task_Module_startup__E                                     
1001ae19  ti_sysbios_knl_Task_create                                                
1001ae75  ti_sysbios_knl_Task_startCore__E                                          
1001aed1  ti_sysbios_family_arm_m3_Hwi_Instance_finalize__E                         
1001af29  ti_sysbios_family_arm_m3_Hwi_construct                                    
1001af81  ti_sysbios_knl_Mailbox_construct                                          
1001afd9  ti_sysbios_knl_Swi_run__I                                                 
1001b031  ti_sysbios_knl_Swi_schedule__I                                            
1001b085  ti_sysbios_knl_Swi_construct                                              
1001b0d5  ti_sysbios_knl_Swi_runLoop__I                                             
1001b125  ti_sysbios_knl_Task_construct                                             
1001b175  ti_sysbios_knl_Task_schedule__I                                           
1001b1c1  ti_sysbios_family_arm_m3_Hwi_Module_startup__E                            
1001b209  ti_sysbios_heaps_HeapMem_getStats__E                                      
1001b251  ti_sysbios_knl_Mailbox_Module_startup__E                                  
1001b299  ti_sysbios_family_arm_m3_Hwi_disableInterrupt__E                          
1001b2dd  ti_sysbios_family_arm_m3_Hwi_enableInterrupt__E                           
1001b321  ti_sysbios_knl_Swi_post__E                                                
1001b365  ti_sysbios_knl_Task_allBlockedFunction__I                                 
1001b3a9  ti_sysbios_knl_Task_yield__E                                              
1001b3ed  ti_sysbios_knl_Clock_create                                               
1001b429  ti_sysbios_knl_Task_exit__E                                               
1001b463  ti_sysbios_gates_GateHwi_Instance_init__E                                 
1001b465  ti_sysbios_family_arm_m3_Hwi_getStackInfo__E                              
1001b49d  ti_sysbios_family_arm_m3_TaskSupport_start__E                             
1001b4d5  ti_sysbios_heaps_HeapMem_Instance_init__E                                 
1001b50d  ti_sysbios_knl_Clock_Instance_init__E                                     
1001b545  ti_sysbios_heaps_HeapMem_init__I                                          
1001b579  ti_sysbios_knl_Clock_construct                                            
1001b5ad  ti_sysbios_knl_Semaphore_create                                           
1001b5e1  ti_sysbios_knl_Swi_restore__E                                             
1001b615  ti_sysbios_knl_Task_blockI__E                                             
1001b649  ti_sysbios_gates_GateMutex_Object__create__S                              
1001b679  ti_sysbios_gates_GateMutex_create                                         
1001b6a9  ti_sysbios_gates_GateMutex_enter__E                                       
1001b6d9  ti_sysbios_knl_Clock_getTicks__E                                          
1001b709  ti_sysbios_knl_Semaphore_construct                                        
1001b739  ti_sysbios_knl_Task_processVitalTaskFlag__I                               
1001b769  ti_sysbios_family_arm_cc26xx_Timer_postInit__I                            
1001b795  ti_sysbios_family_arm_cc26xx_Timer_startup__E                             
1001b795  ti_sysbios_knl_Clock_TimerProxy_startup__E                                
1001b7c1  ti_sysbios_family_arm_m3_Hwi_Object__get__S                               
1001b7ed  ti_sysbios_gates_GateMutex_construct                                      
1001b819  ti_sysbios_hal_Hwi_initStack                                              
1001b845  ti_sysbios_heaps_HeapMem_Object__create__S                                
1001b871  ti_sysbios_heaps_HeapMem_Object__get__S                                   
1001b89d  ti_sysbios_knl_Mailbox_Object__get__S                                     
1001b8c9  ti_sysbios_knl_Mailbox_postInit__I                                        
1001b8f5  ti_sysbios_knl_Queue_construct                                            
1001b921  ti_sysbios_knl_Queue_create                                               
1001b94d  ti_sysbios_knl_Semaphore_pendTimeout__I                                   
1001b979  ti_sysbios_knl_Swi_Object__get__S                                         
1001b9a5  ti_sysbios_knl_Task_unblockI__E                                           
1001b9d1  ti_sysbios_family_arm_cc26xx_TimestampProvider_get64__E                   
1001b9d1  xdc_runtime_Timestamp_SupportProxy_get64__E                               
1001b9d1  xdc_runtime_Timestamp_get64__E                                            
1001b9f9  ti_sysbios_hal_Hwi_Instance_init__E                                       
1001ba21  ti_sysbios_knl_Clock_addI__E                                              
1001ba49  ti_sysbios_knl_Task_restore__E                                            
1001ba71  ti_sysbios_family_arm_cc26xx_Timer_Module_startup__E                      
1001ba95  ti_sysbios_gates_GateHwi_Object__create__S                                
1001bab9  ti_sysbios_BIOS_RtsGateProxy_Object__delete__S                            
1001bab9  ti_sysbios_gates_GateMutex_Object__delete__S                              
1001bab9  ti_sysbios_heaps_HeapMem_Module_GateProxy_Object__delete__S               
1001badd  ti_sysbios_knl_Clock_Object__delete__S                                    
1001bb01  ti_sysbios_knl_Semaphore_Instance_init__E                                 
1001bb25  ti_sysbios_knl_Semaphore_Object__delete__S                                
1001bb49  ti_sysbios_family_arm_cc26xx_Timer_Module__startupDone__S                 
1001bb69  ti_sysbios_family_arm_cc26xx_TimestampProvider_Module_startup__E          
1001bb89  ti_sysbios_family_arm_m3_Hwi_Module__startupDone__S                       
1001bba9  ti_sysbios_family_arm_m3_Hwi_Object__delete__S                            
1001bba9  ti_sysbios_hal_Hwi_HwiProxy_Object__delete__S                             
1001bbc9  ti_sysbios_family_arm_m3_Hwi_excHandler__I                                
1001bbe9  ti_sysbios_gates_GateHwi_Handle__label__S                                 
1001bbe9  xdc_runtime_System_Module_GateProxy_Handle__label__S                      
1001bc09  ti_sysbios_gates_GateHwi_Object__delete__S                                
1001bc09  xdc_runtime_System_Module_GateProxy_Object__delete__S                     
1001bc29  ti_sysbios_BIOS_RtsGateProxy_Handle__label__S                             
1001bc29  ti_sysbios_gates_GateMutex_Handle__label__S                               
1001bc29  ti_sysbios_heaps_HeapMem_Module_GateProxy_Handle__label__S                
1001bc49  ti_sysbios_gates_GateMutex_Object__destruct__S                            
1001bc69  ti_sysbios_hal_Hwi_Object__delete__S                                      
1001bc89  ti_sysbios_heaps_HeapMem_Handle__label__S                                 
1001bc89  xdc_runtime_Memory_HeapProxy_Handle__label__S                             
1001bca9  ti_sysbios_heaps_HeapMem_Object__delete__S                                
1001bca9  xdc_runtime_Memory_HeapProxy_Object__delete__S                            
1001bcc9  ti_sysbios_knl_Clock_Module_startup__E                                    
1001bce9  ti_sysbios_knl_Clock_Object__destruct__S                                  
1001bd09  ti_sysbios_knl_Idle_run__E                                                
1001bd29  ti_sysbios_knl_Mailbox_Object__delete__S                                  
1001bd49  ti_sysbios_knl_Queue_Object__delete__S                                    
1001bd69  ti_sysbios_knl_Queue_Object__get__S                                       
1001bd89  ti_sysbios_knl_Semaphore_Object__destruct__S                              
1001bda9  ti_sysbios_knl_Swi_Object__delete__S                                      
1001bdc9  ti_sysbios_knl_Task_Object__delete__S                                     
1001bde9  ti_sysbios_knl_Task_Object__get__S                                        
1001be09  ti_sysbios_knl_Task_enter__I                                              
1001be29  ti_sysbios_knl_Task_restoreHwi__E                                         
1001be49  ti_sysbios_hal_Hwi_HwiProxy_create                                        
1001be67  ti_sysbios_knl_Clock_logTick__E                                           
1001be69  ti_sysbios_family_arm_m3_Hwi_Object__destruct__S                          
1001be85  ti_sysbios_family_arm_m3_Hwi_setPriority__E                               
1001bea1  ti_sysbios_gates_GateMutex_Instance_init__E                               
1001bebd  ti_sysbios_knl_Clock_scheduleNextTick__E                                  
1001bed9  ti_sysbios_knl_Mailbox_Object__destruct__S                                
1001bef5  ti_sysbios_knl_Queue_Object__destruct__S                                  
1001bf11  ti_sysbios_knl_Queue_get__E                                               
1001bf2d  ti_sysbios_knl_Queue_put__E                                               
1001bf49  ti_sysbios_knl_Swi_Object__destruct__S                                    
1001bf65  ti_sysbios_knl_Task_Object__destruct__S                                   
1001bf81  ti_sysbios_knl_Task_sleepTimeout__I                                       
1001bf9b  ti_sysbios_knl_Swi_Instance_finalize__E                                   
1001bf9d  ti_sysbios_gates_GateMutex_leave__E                                       
1001bfb5  ti_sysbios_knl_Task_unblock__E                                            
1001bfcd  ti_sysbios_knl_Clock_Instance_finalize__E                                 
1001bfe3  ti_sysbios_knl_Clock_start__E                                             
1001bff9  ti_sysbios_BIOS_getCpuFreq__E                                             
1001c00d  ti_sysbios_family_arm_m3_Hwi_switchFromBootStack__E                       
1001c021  ti_sysbios_hal_Hwi_Module_startup__E                                      
1001c035  ti_sysbios_BIOS_exit__E                                                   
1001c045  ti_sysbios_BIOS_setThreadType__E                                          
1001c055  ti_sysbios_BIOS_start__E                                                  
1001c065  ti_sysbios_family_arm_m3_Hwi_plug__E                                      
1001c075  ti_sysbios_gates_GateMutex_Instance_finalize__E                           
1001c085  ti_sysbios_hal_Hwi_HwiProxy_Object__create__S                             
1001c095  ti_sysbios_knl_Clock_TimerProxy_getCurrentTick__E                         
1001c0a5  ti_sysbios_knl_Clock_TimerProxy_getMaxTicks__E                            
1001c0b5  ti_sysbios_knl_Clock_TimerProxy_setNextTick__E                            
1001c0c5  ti_sysbios_knl_Semaphore_Instance_finalize__E                             
1001c0d5  ti_sysbios_knl_Swi_disable__E                                             
1001c0e5  ti_sysbios_knl_Swi_enabled__E                                             
1001c0f5  ti_sysbios_knl_Task_disable__E                                            
1001c105  ti_sysbios_heaps_HeapMem_restore__E                                       
1001c113  ti_sysbios_knl_Queue_empty__E                                             
1001c121  ti_sysbios_knl_Queue_remove__E                                            
1001c12f  ti_sysbios_family_arm_cc26xx_TimestampProvider_getFreq__E                 
1001c12f  xdc_runtime_Timestamp_SupportProxy_getFreq__E                             
1001c12f  xdc_runtime_Timestamp_getFreq__E                                          
1001c13d  ti_sysbios_family_arm_m3_Hwi_Params__init__S                              
1001c13d  ti_sysbios_hal_Hwi_HwiProxy_Params__init__S                               
1001c149  ti_sysbios_family_arm_m3_Hwi_disableFxn__E                                
1001c155  ti_sysbios_family_arm_m3_Hwi_enableFxn__E                                 
1001c161  ti_sysbios_family_arm_m3_TaskSupport_getStackAlignment__E                 
1001c16d  ti_sysbios_gates_GateHwi_enter__E                                         
1001c179  ti_sysbios_BIOS_RtsGateProxy_Params__init__S                              
1001c179  ti_sysbios_gates_GateMutex_Params__init__S                                
1001c179  ti_sysbios_heaps_HeapMem_Module_GateProxy_Params__init__S                 
1001c185  ti_sysbios_knl_Clock_Params__init__S                                      
1001c191  ti_sysbios_knl_Clock_getTimerHandle__E                                    
1001c19d  ti_sysbios_knl_Mailbox_Params__init__S                                    
1001c1a9  ti_sysbios_knl_Queue_dequeue__E                                           
1001c1b5  ti_sysbios_knl_Queue_enqueue__E                                           
1001c1c1  ti_sysbios_knl_Semaphore_Params__init__S                                  
1001c1cd  ti_sysbios_knl_Swi_Params__init__S                                        
1001c1d9  ti_sysbios_knl_Task_Params__init__S                                       
1001c1e5  ti_sysbios_knl_Task_self__E                                               
1001c1f1  ti_sysbios_hal_Hwi_Instance_finalize__E                                   
1001c1fb  ti_sysbios_family_arm_m3_Hwi_doSwiRestore__I                              
1001c203  ti_sysbios_family_arm_m3_Hwi_startup__E                                   
1001c20b  ti_sysbios_knl_Idle_loop__E                                               
1001c213  ti_sysbios_family_arm_m3_Hwi_doTaskRestore__I                             
1001c219  ti_sysbios_family_arm_m3_Hwi_restoreFxn__E                                
1001c21f  ti_sysbios_gates_GateHwi_leave__E                                         
1001c22b  ti_sysbios_knl_Queue_Instance_init__E                                     
1001c231  ti_sysbios_knl_Queue_elemClear__E                                         
1001c237  ti_sysbios_knl_Swi_Module_startup__E                                      
1001c23d  ti_sysbios_knl_Swi_startup__E                                             
1001c243  ti_sysbios_knl_Task_enable__E                                             
1001c249  ti_sysbios_BIOS_RtsGateProxy_enter__E                                     
1001c24d  ti_sysbios_BIOS_RtsGateProxy_leave__E                                     
1001c251  ti_sysbios_family_arm_cc26xx_Timer_getExpiredTicks__E                     
1001c255  ti_sysbios_family_arm_cc26xx_Timer_getPeriod__E                           
1001c259  ti_sysbios_family_arm_cc26xx_Timer_setPeriod__E                           
1001c25d  ti_sysbios_family_arm_m3_Hwi_delete                                       
1001c261  ti_sysbios_family_arm_m3_Hwi_destruct                                     
1001c265  ti_sysbios_family_arm_m3_TaskSupport_Module__startupDone__S               
1001c269  ti_sysbios_gates_GateHwi_query__E                                         
1001c269  xdc_runtime_System_Module_GateProxy_query__E                              
1001c26d  ti_sysbios_gates_GateMutex_delete                                         
1001c271  ti_sysbios_gates_GateMutex_destruct                                       
1001c275  ti_sysbios_BIOS_RtsGateProxy_query__E                                     
1001c275  ti_sysbios_gates_GateMutex_query__E                                       
1001c275  ti_sysbios_heaps_HeapMem_Module_GateProxy_query__E                        
1001c279  ti_sysbios_hal_Hwi_HwiProxy_Module__startupDone__S                        
1001c27d  ti_sysbios_hal_Hwi_HwiProxy_delete                                        
1001c281  ti_sysbios_hal_Hwi_HwiProxy_disableInterrupt__E                           
1001c281  ti_sysbios_hal_Hwi_disableInterrupt__E                                    
1001c285  ti_sysbios_hal_Hwi_HwiProxy_enableInterrupt__E                            
1001c285  ti_sysbios_hal_Hwi_enableInterrupt__E                                     
1001c289  ti_sysbios_hal_Hwi_HwiProxy_getStackInfo__E                               
1001c289  ti_sysbios_hal_Hwi_getStackInfo__E                                        
1001c28d  ti_sysbios_hal_Hwi_HwiProxy_startup__E                                    
1001c28d  ti_sysbios_hal_Hwi_startup__E                                             
1001c291  ti_sysbios_hal_Hwi_HwiProxy_switchFromBootStack__E                        
1001c295  ti_sysbios_hal_Hwi_delete                                                 
1001c299  ti_sysbios_hal_Hwi_switchFromBootStack__E                                 
1001c29d  ti_sysbios_heaps_HeapMem_Module_GateProxy_enter__E                        
1001c2a1  ti_sysbios_heaps_HeapMem_Module_GateProxy_leave__E                        
1001c2a5  ti_sysbios_heaps_HeapMem_isBlocking__E                                    
1001c2a9  ti_sysbios_knl_Clock_TimerProxy_Module__startupDone__S                    
1001c2ad  ti_sysbios_knl_Clock_TimerProxy_getExpiredTicks__E                        
1001c2b1  ti_sysbios_knl_Clock_TimerProxy_getPeriod__E                              
1001c2b5  ti_sysbios_knl_Clock_delete                                               
1001c2b9  ti_sysbios_knl_Clock_destruct                                             
1001c2bd  ti_sysbios_knl_Clock_removeI__E                                           
1001c2c1  ti_sysbios_knl_Clock_setTimeout__E                                        
1001c2c5  ti_sysbios_knl_Mailbox_delete                                             
1001c2c9  ti_sysbios_knl_Mailbox_destruct                                           
1001c2cd  ti_sysbios_knl_Queue_delete                                               
1001c2d1  ti_sysbios_knl_Queue_destruct                                             
1001c2d5  ti_sysbios_knl_Queue_head__E                                              
1001c2d9  ti_sysbios_knl_Queue_next__E                                              
1001c2dd  ti_sysbios_knl_Semaphore_delete                                           
1001c2e1  ti_sysbios_knl_Semaphore_destruct                                         
1001c2e5  ti_sysbios_knl_Swi_delete                                                 
1001c2e9  ti_sysbios_knl_Swi_destruct                                               
1001c2ed  ti_sysbios_knl_Swi_postInit__I                                            
1001c2f1  ti_sysbios_knl_Task_SupportProxy_Module__startupDone__S                   
1001c2f5  ti_sysbios_knl_Task_SupportProxy_getStackAlignment__E                     
1001c2f9  ti_sysbios_knl_Task_SupportProxy_start__E                                 
1001c2fd  ti_sysbios_knl_Task_SupportProxy_swap__E                                  
1001c301  ti_sysbios_knl_Task_delete                                                
1001c305  ti_sysbios_knl_Task_destruct                                              
1001c309  ti_sysbios_knl_Task_startup__E                                            
1001c30d  xdc_runtime_Startup_startMods__I                                          
1001c405  xdc_runtime_Core_createObject__I                                          
1001c487  xdc_runtime_Error_policySpin__E                                           
1001c489  xdc_runtime_Memory_alloc__E                                               
1001c4f9  xdc_runtime_Core_deleteObject__I                                          
1001c559  xdc_runtime_Startup_exec__E                                               
1001c5a9  xdc_runtime_Assert_raise__I                                               
1001c5f1  xdc_runtime_Core_assignParams__I                                          
1001c639  xdc_runtime_Core_constructObject__I                                       
1001c681  xdc_runtime_System_atexit__E                                              
1001c6b9  xdc_runtime_System_processAtExit__E                                       
1001c6ed  xdc_runtime_Core_assignLabel__I                                           
1001c71d  xdc_runtime_Text_cordText__E                                              
1001c749  xdc_runtime_System_abort__E                                               
1001c769  xdc_runtime_Error_raiseX__E                                               
1001c785  xdc_runtime_Memory_valloc__E                                              
1001c7a1  xdc_runtime_Core_destructObject__I                                        
1001c7b9  xdc_runtime_Error_check__E                                                
1001c7d1  xdc_runtime_System_exit__E                                                
1001c7e9  xdc_runtime_Text_ropeText__E                                              
1001c801  xdc_runtime_Memory_free__E                                                
1001c811  xdc_runtime_SysCallback_abort__E                                          
1001c821  xdc_runtime_SysCallback_exit__E                                           
1001c831  xdc_runtime_Timestamp_SupportProxy_get32__E                               
1001c831  xdc_runtime_Timestamp_get32__E                                            
1001c841  xdc_runtime_Error_init__E                                                 
1001c84d  xdc_runtime_Memory_calloc__E                                              
1001c859  xdc_runtime_Memory_getMaxDefaultTypeAlign__E                              
1001c879  xdc_runtime_Gate_leaveSystem__E                                           
1001c87f  xdc_runtime_System_Module_startup__E                                      
1001c885  xdc_runtime_Gate_enterSystem__E                                           
1001c889  xdc_runtime_Memory_HeapProxy_alloc__E                                     
1001c88d  xdc_runtime_Memory_HeapProxy_free__E                                      
1001c891  xdc_runtime_System_Module_GateProxy_enter__E                              
1001c895  xdc_runtime_System_Module_GateProxy_leave__E                              
1001c899  xdc_runtime_System_abortSpin__E                                           
1001c89b  xdc_runtime_System_exitSpin__E                                            
1001c89d  ti_sysbios_family_arm_m3_Hwi_dispatch__I                                  
1001c96d  ti_sysbios_family_arm_m3_TaskSupport_buildTaskStack                       
1001c9b9  ti_sysbios_family_arm_m3_Hwi_initStacks__E                                
1001ca01  ti_sysbios_family_arm_m3_Hwi_excHandlerAsm__I                             
1001ca21  ti_sysbios_family_xxx_Hwi_switchAndRunFunc                                
1001ca3f  ti_sysbios_family_arm_m3_Hwi_pendSV__I                                    
1001ca57  ti_sysbios_family_arm_m3_Hwi_return                                       
1001ca59  ti_sysbios_family_arm_m3_TaskSupport_glue                                 
1001ca69  ti_sysbios_family_arm_m3_TaskSupport_swap__E                              
1001ca71  ti_sysbios_knl_Task_swapReturn                                            
1001ca9b  ti_sysbios_rom_cortexm_cc26xx_CC26xx_getRevision__E                       
20000000  ti_sysbios_family_arm_m3_Hwi_ramVectors                                   
20000100  ti_sysbios_knl_Task_Module__state__V                                      
20000144  ti_sysbios_family_arm_m3_Hwi_Module__state__V                             
20000178  ti_sysbios_knl_Clock_Module__state__V                                     
200001a4  ti_sysbios_BIOS_Module__state__V                                          
200001c8  ti_sysbios_knl_Swi_Module__state__V                                       
200001e4  ti_sysbios_family_arm_cc26xx_Timer_Module__state__V                       
200001ec  ti_sysbios_family_arm_cc26xx_TimestampProvider_Module__state__V           
200001f0  xdc_runtime_Startup_Module__state__V                                      
200001f8  xdc_runtime_System_Module__state__V                                       
20000200  xdc_runtime_Memory_Module__state__V                                       
20000650  PowerCC26XX_module                                                        
20000760  ti_sysbios_family_arm_cc26xx_Timer_Module__root__V                        
20000768  ti_sysbios_family_arm_m3_Hwi_Module__root__V                              
20000770  ti_sysbios_family_arm_m3_Hwi_Object__table__V                             
20000788  ti_sysbios_family_arm_m3_Hwi_Module_State_0_excActive__A                  
2000078c  ti_sysbios_family_arm_m3_Hwi_Module_State_0_excContext__A                 
20000790  ti_sysbios_family_arm_m3_Hwi_Module_State_0_excStack__A                   
20000794  ti_sysbios_gates_GateHwi_Module__root__V                                  
2000079c  ti_sysbios_gates_GateHwi_Object__table__V                                 
200007a0  ti_sysbios_gates_GateMutex_Module__root__V                                
200007a8  ti_sysbios_hal_Hwi_Module__root__V                                        
200007b0  ti_sysbios_heaps_HeapMem_Module__root__V                                  
200007b8  ti_sysbios_heaps_HeapMem_Object__table__V                                 
200007d0  ti_sysbios_knl_Clock_Module__root__V                                      
200007d8  ti_sysbios_knl_Clock_Object__table__V                                     
200007f8  ti_sysbios_knl_Event_Module__root__V                                      
20000800  ti_sysbios_knl_Mailbox_Module__root__V                                    
20000808  ti_sysbios_knl_Queue_Module__root__V                                      
20000810  ti_sysbios_knl_Semaphore_Module__root__V                                  
20000818  ti_sysbios_knl_Swi_Module__root__V                                        
20000820  ti_sysbios_knl_Task_Module__root__V                                       
20000828  ti_sysbios_knl_Task_Module_State_0_idleTask__A                            
2000082c  xdc_runtime_LoggerCallback_Module__root__V                                
20000834  xdc_runtime_LoggerCallback_Object__table__V                               
20000844  __xdc__init__addr                                                         
20000924  ledPinTable                                                               
2000092c  daccsPinTable                                                             
20000934  adcPinTable                                                               
2000093c  buttonPinTable                                                            
20000b2c  rfRegTbl                                                                  
20000b7c  ti_sysbios_knl_Task_Object__table__V                                      
20000bc8  ti_sysbios_family_arm_cc26xx_Timer_Object__table__V                       
20000c10  ti_sysbios_gates_GateMutex_Object__table__V                               
20000c48  ti_sysbios_knl_Swi_Module_State_0_readyQ__A                               
20000c78  ti_sysbios_knl_Swi_Object__table__V                                       
20000ca8  ti_sysbios_knl_Task_Module_State_0_readyQ__A                              
20000cd8  user0Cfg                                                                  
20000da8  ICall_enterCriticalSection                                                
20000dac  ICall_leaveCriticalSection                                                
20000db0  ICall_dispatcher                                                          
20000dc4  lastAppOpcodeSent                                                         
20000dc8  pfnBMAlloc                                                                
20000dcc  pfnBMFree                                                                 
20000de0  uartLog_tail                                                              
20000de1  uartLog_head                                                              
20000de2  uartLog_evBufIsEmpty                                                      
20000de4  uartLog_evtNum                                                            
20000df0  _lock                                                                     
20000df4  _unlock                                                                   
20000df8  __TI_cleanup_ptr                                                          
20000dfc  __TI_dtors_ptr                                                            
20000e00  xdc_runtime_Registry_Module__state__V                                     
20000e08  appAssertCback                                                            
20000e10  main_func_sp                                                              
20000e18  ti_sysbios_heaps_HeapMem_Instance_State_0_buf__A                          
20001498  uartLog_evBuf                                                             
20001d98  przTaskStack                                                              
200020b8  gapRoleTaskStack                                                          
200022c0  ti_sysbios_knl_Task_Instance_State_0_stack__A                             
200024c0  spiCC26XXDMAObjects                                                       
20002778  ti_sysbios_family_arm_m3_Hwi_dispatchTable                                
20002840  uartLog_outBuf                                                            
200028ec  PIN_HandleTable                                                           
20002968  gapRoleTask                                                               
200029b8  przTask                                                                   
20002cac  udmaObjects                                                               
20002e58  HEAPMGR_SIZE                                                              
20002e60  PIN_NumPins                                                               
20002e7c  dispHandle                                                                
20002ec4  trngCC26XXObjects                                                         
20002ed2  driverlib_release_0_46593                                                 
20002ed9  linkDBNumConns                                                            
20002ede  heapStart                                                                 
20003f48  __stack                                                                   
20003f48  heapEnd                                                                   
20004348  __STACK_END                                                               
20004348  __STACK_TOP                                                               
20004f2c  A4_rw                                                                     
20004f2c  COMMON_RAM_BASE_ADDR                                                      
20004f40  P2_rw                                                                     
20004f40  P2_s0                                                                     
20004f40  eccRom_windowSize                                                         
20004f44  eccRom_workzone                                                           
20004f48  eccRom_param_p                                                            
20004f4c  eccRom_param_r                                                            
20004f50  eccRom_param_a                                                            
20004f54  inScalar                                                                  
20004f58  inPointX                                                                  
20004f5c  inPointY                                                                  
20004f60  outPointX                                                                 
20004f64  outPointY                                                                 
20004f68  SCAL                                                                      
20004f6c  EXPX                                                                      
20004f70  EXPY                                                                      
20004f74  EXPZ                                                                      
20004f78  EXPW                                                                      
20004f7c  ACCX                                                                      
20004f80  ACCY                                                                      
20004f84  ACCZ                                                                      
20004f88  TMP1                                                                      
20004f8c  TMP2                                                                      
20004f90  TMP3                                                                      
20004f94  TMP4                                                                      
20004f98  TMP5                                                                      
20004f9c  TMP6                                                                      
20004fa0  eccRom_param_Gx                                                           
20004fa4  eccRom_param_Gy                                                           
20004fa8  eccRom_param_b                                                            
20004fac  P2_zi                                                                     
20004fac  ratChanInfo                                                               
20004fcc  fwInfoCmd                                                                 
20004fd8  MSBMOD                                                                    
20004fdc  aux64                                                                     
20004fe4  MOD                                                                       
20004fe8  LEN                                                                       
20004ffc  pSspAesEncrypt_Sw                                                         
e000e000  ti_sysbios_family_arm_m3_Hwi_nvic                                         
ffffffff  __binit__                                                                 
ffffffff  binit                                                                     
UNDEFED   HwiP_restore                                                              
UNDEFED   SHT$$INIT_ARRAY$$Base                                                     
UNDEFED   SHT$$INIT_ARRAY$$Limit                                                    
UNDEFED   scifOsalEnterCriticalSection                                              
UNDEFED   scifOsalLeaveCriticalSection                                              
UNDEFED   ti_sysbios_BIOS_RtsGateProxy_Handle__label__S__mangled__                  
UNDEFED   ti_sysbios_BIOS_RtsGateProxy_Object__delete__S__mangled__                 
UNDEFED   ti_sysbios_BIOS_RtsGateProxy_Params__init__S__mangled__                   
UNDEFED   ti_sysbios_BIOS_RtsGateProxy_query__E__mangled__                          
UNDEFED   ti_sysbios_hal_Hwi_HwiProxy_Module__startupDone__S__mangled__             
UNDEFED   ti_sysbios_hal_Hwi_HwiProxy_Object__delete__S__mangled__                  
UNDEFED   ti_sysbios_hal_Hwi_HwiProxy_Params__init__S__mangled__                    
UNDEFED   ti_sysbios_hal_Hwi_HwiProxy_disableInterrupt__E__mangled__                
UNDEFED   ti_sysbios_hal_Hwi_HwiProxy_enableInterrupt__E__mangled__                 
UNDEFED   ti_sysbios_hal_Hwi_HwiProxy_getStackInfo__E__mangled__                    
UNDEFED   ti_sysbios_hal_Hwi_HwiProxy_startup__E__mangled__                         
UNDEFED   ti_sysbios_hal_Hwi_HwiProxy_switchFromBootStack__E__mangled__             
UNDEFED   ti_sysbios_hal_Hwi_disableInterrupt__E                                    
UNDEFED   ti_sysbios_hal_Hwi_enableInterrupt__E                                     
UNDEFED   ti_sysbios_hal_Hwi_getStackInfo__E                                        
UNDEFED   ti_sysbios_hal_Hwi_startup__E                                             
UNDEFED   ti_sysbios_hal_Hwi_switchFromBootStack__E                                 
UNDEFED   ti_sysbios_heaps_HeapMem_Module_GateProxy_Handle__label__S__mangled__     
UNDEFED   ti_sysbios_heaps_HeapMem_Module_GateProxy_Object__delete__S__mangled__    
UNDEFED   ti_sysbios_heaps_HeapMem_Module_GateProxy_Params__init__S__mangled__      
UNDEFED   ti_sysbios_heaps_HeapMem_Module_GateProxy_query__E__mangled__             
UNDEFED   ti_sysbios_knl_Clock_TimerProxy_Module__startupDone__S__mangled__         
UNDEFED   ti_sysbios_knl_Clock_TimerProxy_startup__E__mangled__                     
UNDEFED   ti_sysbios_knl_Task_SupportProxy_Module__startupDone__S__mangled__        
UNDEFED   ti_sysbios_knl_Task_SupportProxy_getStackAlignment__E__mangled__          
UNDEFED   ti_sysbios_knl_Task_SupportProxy_start__E__mangled__                      
UNDEFED   ti_sysbios_knl_Task_SupportProxy_swap__E__mangled__                       
UNDEFED   xdc_runtime_Main_Module_GateProxy_Handle__label__S                        
UNDEFED   xdc_runtime_Main_Module_GateProxy_Object__delete__S                       
UNDEFED   xdc_runtime_Main_Module_GateProxy_query__E                                
UNDEFED   xdc_runtime_Memory_HeapProxy_Handle__label__S__mangled__                  
UNDEFED   xdc_runtime_Memory_HeapProxy_Object__delete__S__mangled__                 
UNDEFED   xdc_runtime_System_Module_GateProxy_Handle__label__S__mangled__           
UNDEFED   xdc_runtime_System_Module_GateProxy_Object__delete__S__mangled__          
UNDEFED   xdc_runtime_System_Module_GateProxy_query__E__mangled__                   
UNDEFED   xdc_runtime_System_SupportProxy_abort__E                                  
UNDEFED   xdc_runtime_System_SupportProxy_exit__E                                   
UNDEFED   xdc_runtime_Timestamp_SupportProxy_get64__E__mangled__                    
UNDEFED   xdc_runtime_Timestamp_SupportProxy_getFreq__E__mangled__                  
UNDEFED   xdc_runtime_Timestamp_get32__E                                            
UNDEFED   xdc_runtime_Timestamp_get64__E                                            
UNDEFED   xdc_runtime_Timestamp_getFreq__E                                          

[1200 symbols]
